--- !tapi-tbd-v2
archs:                 [ armv7, armv7s, arm64, arm64e ]
platform:              ios
flags:                 [ flat_namespace ]
install-name:          /System/Library/Frameworks/PencilKit.framework/PencilKit
current-version:       1
compatibility-version: 1
objc-constraint:       retain_release
exports:
  - archs:              [ armv7, armv7s, arm64, arm64e ]
    symbols:            [ _DKDAddPoints, _DKDAddSizes, _DKDAffineTransformForFlips, _DKDAffineTransformShear, _DKDAliasRound,
                          _DKDAliasRoundedPoint, _DKDAliasRoundedRectForScale, _DKDAngleFromDelta, _DKDAveragePoints, _DKDCeilSize,
                          _DKDCenterOfRect, _DKDCenterRectOverRect, _DKDClampPointInRect, _DKDCollinearPoints, _DKDComplexMultiplyPoint,
                          _DKDCreatePathFromTransformedRect, _DKDCrossPoints, _DKDDeltaApplyAffineTransform, _DKDDeltaFromAngle,
                          _DKDDistance, _DKDDistanceBetweenAnglesInRadians, _DKDDistanceSquared, _DKDDistanceToRect,
                          _DKDDistanceToRectFromRect, _DKDDotPoints, _DKDEdgeInsetsZero, _DKDFitOrFillSizeInRect, _DKDFitOrFillSizeInSize,
                          _DKDFlipRect, _DKDFloorForScale, _DKDFlooredPoint, _DKDGetCanvasSpaceCorners, _DKDGrowRectToPoint,
                          _DKDHorizontalSpacingRect, _DKDInterpolatePoints, _DKDIntersectionOfInfiniteLines, _DKDIntersectionOfLines,
                          _DKDIntersectionOfSegments, _DKDIntersectsRect, _DKDIsTransformAxisAligned,
                          _DKDIsTransformAxisAlignedUnflipped, _DKDIsTransformAxisAlignedWithObjectSize,
                          _DKDIsTransformAxisAlignedWithThreshold, _DKDIsTransformFlipped, _DKDLineIntersectsRect,
                          _DKDMixAnglesInDegrees, _DKDMixAnglesInRadians, _DKDMixBOOLs, _DKDMixFloats, _DKDMixNormalizedAnglesInRadians,
                          _DKDMixPoints, _DKDMixRects, _DKDMixSizes, _DKDMultiplyPointBySize, _DKDMultiplyPointScalar,
                          _DKDMultiplyRectScalar, _DKDMultiplySizeScalar, _DKDNearestPointOnInfiniteLineToPoint,
                          _DKDNearlyCollinearPoints, _DKDNearlyContainsRect, _DKDNearlyEqualPoints, _DKDNearlyEqualRects,
                          _DKDNearlyEqualSizes, _DKDNearlyEqualTransforms, _DKDNiceAngleFromDelta, _DKDNormalizeAngleAboutZeroInRadians,
                          _DKDNormalizeAngleInDegrees, _DKDNormalizeAngleInRadians, _DKDNormalizeDifferenceAngleInDegrees,
                          _DKDNormalizePoint, _DKDNormalizeSignedDifferenceAngleInDegrees, _DKDNormalizedFloatInRange,
                          _DKDNormalizedPointInRect, _DKDNormalizedSubrectInRect, _DKDOffsetForEdgeOfFrame, _DKDOriginRotate,
                          _DKDOrthogonalDistance, _DKDPercentRectInsideRect, _DKDPointFromNormalizedRect, _DKDPointHasNaNComponents,
                          _DKDPointInRectInclusive, _DKDPointInfinity, _DKDPointIsFinite, _DKDPointLength, _DKDPointOne,
                          _DKDPointOrientation, _DKDPointSquaredLength, _DKDRectByExpandingBoundingRectToContentRect,
                          _DKDRectByPinningEdgeToRect, _DKDRectDivide, _DKDRectFromNormalizedSubrect, _DKDRectGetMaxPoint,
                          _DKDRectHasNaNComponents, _DKDRectIsFinite, _DKDRectSubtractingRect, _DKDRectUnit, _DKDRectWithCenterAndSize,
                          _DKDRectWithInverseNormalizedRect, _DKDRectWithOriginAndSize, _DKDRectWithPoints, _DKDRectWithSize,
                          _DKDRectWithSizeAlignedToRect, _DKDRectsOverlapHorizontally, _DKDRectsOverlapVertically,
                          _DKDRotatePoint90Degrees, _DKDRoundForScale, _DKDRoundedMaxX, _DKDRoundedMaxY, _DKDRoundedMidX, _DKDRoundedMidY,
                          _DKDRoundedMinX, _DKDRoundedMinY, _DKDRoundedPoint, _DKDRoundedPointForScale, _DKDRoundedRect,
                          _DKDRoundedRectForScale, _DKDRoundedSize, _DKDScaleForTransform, _DKDScaleRectAroundPoint,
                          _DKDScaleSizeWithinSize, _DKDShiftConstrainDelta, _DKDShiftConstrainDeltaToAngle, _DKDShrinkSizeToFitInSize,
                          _DKDSizeExpandedToMatchAspectRatio, _DKDSizeHasNaNComponents, _DKDSizeIsEmpty, _DKDSizeIsFinite,
                          _DKDSizeWithAspectRatio, _DKDSizeWithMaxArea, _DKDStringFromAffineTransform, _DKDSubtractPoints,
                          _DKDSubtractSizes, _DKDTransform3DDecompose, _DKDTransform3DNearlyEqualToTransform,
                          _DKDTransform3DNearlyEqualToTransformWithTolerance, _DKDTransformAngle, _DKDTransformConvertForNewOrigin,
                          _DKDTransformConvertingRectToRect, _DKDTransformConvertingRectToRectAtPercent, _DKDTransformDecompose,
                          _DKDTransformFromTransformSpace, _DKDTransformHasNaNComponents, _DKDTransformInTransformSpace,
                          _DKDTransformIsValid, _DKDTransformMakeAxisAligned, _DKDTransformMakeFree, _DKDTransformMixAffineTransforms,
                          _DKDTransformNormalizeScale, _DKDTransformScale, _DKDTransformXYScale, _DKDTransformedCornersOfRect,
                          _DKDTransformsDifferOnlyByTranslation, _DKDTranslatedRectMaximizingOverlapWithRect, _DKDUnionRect,
                          _DKDVerticalSpacingRect, _DKDVisibleUnscaledRectForNewScale, _DKD_CGAffineTransformCompose,
                          _DKD_CGAffineTransformDecompose, _DKUBitmapGetAlignedBytesPerRow, _DKUCGColorCreateConvertedToSRGB,
                          _DKUCGColorCreateDeviceGray, _DKUCGColorCreateDeviceRGB, _DKUCGColorCreatePatternWithImage,
                          _DKUCGColorCreatePatternWithImageAndTransform, _DKUCGColorCreateWithUIColor, _DKUCGPatternCreateWithImage,
                          _DKUCGPatternCreateWithImageAndTransform, _DKUCMYKToRGB, _DKUCalculateHue, _DKUClamp, _DKUColoGetLuminance,
                          _DKUColorGetRGBAComponents, _DKUColorIsBlack, _DKUColorIsEqualToColor, _DKUColorLightness,
                          _DKUConvertColorForDarkStyle, _DKUConvertColorForLightStyle, _DKUConvertHSLToSRGB,
                          _DKUConvertRGBAForDarkStyle, _DKUConvertRGBAForLightStyle, _DKUConvertsRGBToHSL, _DKUCreateCGColorFromHSB,
                          _DKUCreateCGColorFromHSBInColorSpace, _DKUCreateCheckerBoardColor, _DKUCreateRGBABitmapContext,
                          _DKUDeviceCMYKColorSpace, _DKUDeviceGrayColorSpace, _DKUDeviceLabColorSpace, _DKUDeviceRGBColorSpace,
                          _DKUFractionalPart, _DKUHSBFromCGColorRef, _DKUHSBToRGB, _DKUInverseTransformColorFromRGBA, _DKUMix,
                          _DKUPatternColorFromGradient, _DKURGBToHSB, _DKURandom, _DKURandomBetween, _DKUReverseSquare, _DKURound,
                          _DKUSineMap, _DKUTransformColor, _DKUTransformColorFromRGBA, _DKUTransformRGBA, _PKAccessibilityLocalizedNumber,
                          _PKAccessibilityLocalizedPercent, _PKAccessibilityLocalizedUnsignedInteger,
                          _PKAccessibilityNeedsAccessibilityElements, _PKAccessibilityPerformBlockOnMainThreadAfterDelay,
                          _PKAccessibilityPostAnnouncementNotification, _PKAccessibilityPostAnnouncementNotificationWithPriority,
                          _PKAccessibilityPostHighPriorityAnnouncementNotification, _PKAccessibilitySystemDarkenedColor,
                          _PKAppleDrawingTypeIdentifier, _PKAppleStrokeSelectionTypeIdentifier, _PKAttachmentViewDefaultDrawingWidth,
                          _PKBoundedCheckedCastNSUIntegerToUInt32, _PKCFTypeCast, _PKCheckedDynamicCast, _PKCheckedProtocolCast,
                          _PKClassAndProtocolCast, _PKClipperScaling, _PKColorPickerCrosshairViewBorderWidth,
                          _PKColorPickerCrosshairViewShadowWidth, _PKCreateCGPathFromBSpline, _PKDidSelectStrokesNotification,
                          _PKDynamicCast, _PKHandwritingFeedbackActivityType, _PKHashBytes, _PKHashUInt, _PKInkBlueComponentProperty,
                          _PKInkColorProperty, _PKInkGreenComponentProperty, _PKInkIdentifierCharcoal, _PKInkIdentifierEraser,
                          _PKInkIdentifierFountainPen, _PKInkIdentifierLasso, _PKInkIdentifierMarker, _PKInkIdentifierMicronPen,
                          _PKInkIdentifierObjectEraser, _PKInkIdentifierPen, _PKInkIdentifierPencil, _PKInkOpacityProperty,
                          _PKInkRedComponentProperty, _PKInkTypeMarker, _PKInkTypePen, _PKInkTypePencil, _PKInkVariantDefault,
                          _PKInkVariantThick, _PKInkWeightProperty, _PKInlineInkPickerAnimationDuration,
                          _PKInlineInkPickerPreferencesSuite, _PKInlineInkPickerStackViewHeight,
                          _PKInlineInkPickerToolSelectAnimationDuration, _PKInlineInkPickerToolSelectSpringDamping, _PKInputPointZero,
                          _PKMetalRendererBackboardWhiteLevel, _PKMetalRendererStrokeBufferSize,
                          _PKPalettePreviewMinimizedAdditionalScale, _PKPaletteVisualStateDescription, _PKPaletteVisualStateIsRegular,
                          _PKProtocolCast, _PKRandom, _PKShowRenderEngineMetadata, _PKSpecificCast, _PKStatisticsKeyFormatString,
                          _PKTiledViewDrawingMinimumHeight, _PKTiledViewDrawingWidth, _PKToolIdentifierRuler, _PKUUIDCompare,
                          _PK_convertPointFromCoordinateSpaceToCoordinateSpace,
                          _PK_convertPointToCoordinateSpaceFromCoordinateSpace, _PK_convertRectFromCoordinateSpaceToCoordinateSpace,
                          _PK_convertRectToCoordinateSpaceFromCoordinateSpace, _PencilKitBundle, _PencilKitVersionNumber,
                          _PencilKitVersionString, __PKSignpostLog, __PKStrokePointZero, __PencilKitBundle, __UIColorFromRGB,
                          __Z10SegmentMixRN10ClipperLib8IntPointES1_S1_ff, __Z11PKIntegrateNSt3__16vectorIdNS_9allocatorIdEEEERS3_,
                          __Z11PKSplitPathPK6CGPathRNSt3__16vectorIPS_NS2_9allocatorIS4_EEEE,
                          __Z11_PKConvolveNSt3__16vectorIdNS_9allocatorIdEEEES3_RS3_,
                          __Z11splinePointRK19_PKStrokeDataPointsmmldPFdidE,
                          __Z11splinePointRKNSt3__16vectorI14_PKStrokePointNS_9allocatorIS1_EEEEldPFdidE, __Z12PKLinearstepddddd,
                          __Z12PKSmoothstepddddd, __Z12_PKCurvatureNSt3__16vectorI7CGPointNS_9allocatorIS1_EEEERNS0_IdNS2_IdEEEE,
                          __Z13ZFillCallbackRN10ClipperLib8IntPointES1_S1_S1_S1_,
                          __Z13vSyncCallbackP21__IOMobileFramebufferjPK14__CFDictionaryPv,
                          __Z16PKPointsFromPathPK6CGPathRNSt3__16vectorI7CGPointNS2_9allocatorIS4_EEEE,
                          __Z16_PKStrokeIDEqual11_PKStrokeIDS_, __Z16_PKVectorSafeGetNSt3__16vectorIdNS_9allocatorIdEEEEi,
                          __Z17_PKStrokeIDCreatejPhj, __Z17_PKStrokeIDUniquev, __Z18_PKStrokeIDCompare11_PKStrokeIDS_,
                          __Z18_PKTrapezoidWindowiiRNSt3__16vectorIdNS_9allocatorIdEEEE,
                          __Z19PKInterpolatedValueNSt3__16vectorIdNS_9allocatorIdEEEEd,
                          __Z19PKSmoothedCurvatureNSt3__16vectorI7CGPointNS_9allocatorIS1_EEEERNS0_IdNS2_IdEEEE,
                          __Z19_PKSplitPathApplierPvPK13CGPathElement,
                          __Z19_PKTriangularWindowiRNSt3__16vectorIdNS_9allocatorIdEEEE,
                          __Z20PKLengthOfPointArrayNSt3__16vectorI7CGPointNS_9allocatorIS1_EEEE,
                          __Z21PKCompressStrokePoint14_PKStrokePointd, __Z23CGPathAddFlattenedCurveP6CGPath7CGPointS1_S1_d,
                          __Z23PKDecompressStrokePoint23PKCompressedStrokePointd,
                          __Z26PKArcLengthsFromPointArrayNSt3__16vectorI7CGPointNS_9allocatorIS1_EEEERNS0_IdNS2_IdEEEE,
                          __Z26PKDescriptionOfStrokePoint14_PKStrokePoint, __Z27CGPathAddFlattenedQuadCurveP6CGPath7CGPointS1_d,
                          __Z28DKDNearestPointOnLineToPointP7CGPointS_, __Z28PKSplinePointsToBezierPointsP7CGPointS0_,
                          __Z29DKDNearestTValueOnLineToPointP7CGPointS_,
                          __Z29_PKAddFlattenedElementApplierP17PKFlattenPathInfoPK13CGPathElement,
                          __Z30PKProtobufUnknownFieldsCompareRKNSt3__110shared_ptrI23PKProtobufUnknownFieldsEES4_,
                          __Z31PKProtobufUtilitiesFormatTooNewPU15__autoreleasingP7NSError,
                          __Z32PKConvertToCompressedStrokePointRK25PKCompressedStrokePointV1,
                          __Z33PKProtobufUtilitiesMalformedErrorPU15__autoreleasingP7NSError,
                          __Z34PKConvertToCompressedStrokePointV1RK23PKCompressedStrokePoint,
                          __Z40PKCompressedStrokePointWithDefaultValuesv,
                          __Z40_PKControlPointsFromFlattenedPathApplierPNSt3__16vectorI7CGPointNS_9allocatorIS1_EEEEPK13CGPathElement,
                          __ZN10ClipperLib10GetOverlapExxxxRxS0_, __ZN10ClipperLib10PointCountEPNS_5OutPtE,
                          __ZN10ClipperLib10RemoveEdgeEPNS_5TEdgeE, __ZN10ClipperLib10SwapPointsERNS_8IntPointES1_,
                          __ZN10ClipperLib11ClipperBase11PopScanbeamERx, __ZN10ClipperLib11ClipperBase12CreateOutRecEv,
                          __ZN10ClipperLib11ClipperBase12ProcessBoundEPNS_5TEdgeEb,
                          __ZN10ClipperLib11ClipperBase13DeleteFromAELEPNS_5TEdgeE, __ZN10ClipperLib11ClipperBase13DisposeOutRecEm,
                          __ZN10ClipperLib11ClipperBase14InsertScanbeamEx,
                          __ZN10ClipperLib11ClipperBase14PopLocalMinimaExRPKNS_12LocalMinimumE,
                          __ZN10ClipperLib11ClipperBase17DisposeAllOutRecsEv,
                          __ZN10ClipperLib11ClipperBase17UpdateEdgeIntoAELERPNS_5TEdgeE,
                          __ZN10ClipperLib11ClipperBase18LocalMinimaPendingEv,
                          __ZN10ClipperLib11ClipperBase18SwapPositionsInAELEPNS_5TEdgeES2_,
                          __ZN10ClipperLib11ClipperBase22DisposeLocalMinimaListEv, __ZN10ClipperLib11ClipperBase5ClearEv,
                          __ZN10ClipperLib11ClipperBase5ResetEv,
                          __ZN10ClipperLib11ClipperBase7AddPathERKNSt3__16vectorINS_8IntPointENS1_9allocatorIS3_EEEENS_8PolyTypeEb,
                          __ZN10ClipperLib11ClipperBase8AddPathsERKNSt3__16vectorINS2_INS_8IntPointENS1_9allocatorIS3_EEEENS4_IS6_EEEENS_8PolyTypeEb,
                          __ZN10ClipperLib11ClipperBase9GetBoundsEv, __ZN10ClipperLib11ClipperBaseC1Ev,
                          __ZN10ClipperLib11ClipperBaseC2Ev, __ZN10ClipperLib11ClipperBaseD0Ev, __ZN10ClipperLib11ClipperBaseD1Ev,
                          __ZN10ClipperLib11ClipperBaseD2Ev, __ZN10ClipperLib11GetBottomPtEPNS_5OutPtE,
                          __ZN10ClipperLib11OrientationERKNSt3__16vectorINS_8IntPointENS0_9allocatorIS2_EEEE,
                          __ZN10ClipperLib11ReversePathERNSt3__16vectorINS_8IntPointENS0_9allocatorIS2_EEEE,
                          __ZN10ClipperLib11SlopesEqualENS_8IntPointES0_S0_S0_b, __ZN10ClipperLib11SlopesEqualENS_8IntPointES0_S0_b,
                          __ZN10ClipperLib11SlopesEqualERKNS_5TEdgeES2_b,
                          __ZN10ClipperLib12CleanPolygonERKNSt3__16vectorINS_8IntPointENS0_9allocatorIS2_EEEERS5_d,
                          __ZN10ClipperLib12CleanPolygonERNSt3__16vectorINS_8IntPointENS0_9allocatorIS2_EEEEd,
                          __ZN10ClipperLib12GetNextInAELEPNS_5TEdgeENS_9DirectionE,
                          __ZN10ClipperLib12MinkowskiSumERKNSt3__16vectorINS_8IntPointENS0_9allocatorIS2_EEEERKNS1_IS5_NS3_IS5_EEEERS9_b,
                          __ZN10ClipperLib12MinkowskiSumERKNSt3__16vectorINS_8IntPointENS0_9allocatorIS2_EEEES7_RNS1_IS5_NS3_IS5_EEEEb,
                          __ZN10ClipperLib12ReversePathsERNSt3__16vectorINS1_INS_8IntPointENS0_9allocatorIS2_EEEENS3_IS5_EEEE,
                          __ZN10ClipperLib13CleanPolygonsERKNSt3__16vectorINS1_INS_8IntPointENS0_9allocatorIS2_EEEENS3_IS5_EEEERS7_d,
                          __ZN10ClipperLib13CleanPolygonsERNSt3__16vectorINS1_INS_8IntPointENS0_9allocatorIS2_EEEENS3_IS5_EEEEd,
                          __ZN10ClipperLib13ClipperOffset11OffsetPointEiRiNS_8JoinTypeE,
                          __ZN10ClipperLib13ClipperOffset15FixOrientationsEv, __ZN10ClipperLib13ClipperOffset5ClearEv,
                          __ZN10ClipperLib13ClipperOffset7AddPathERKNSt3__16vectorINS_8IntPointENS1_9allocatorIS3_EEEENS_8JoinTypeENS_7EndTypeE,
                          __ZN10ClipperLib13ClipperOffset7DoMiterEiid, __ZN10ClipperLib13ClipperOffset7DoRoundEii,
                          __ZN10ClipperLib13ClipperOffset7ExecuteERNS_8PolyTreeEd,
                          __ZN10ClipperLib13ClipperOffset7ExecuteERNSt3__16vectorINS2_INS_8IntPointENS1_9allocatorIS3_EEEENS4_IS6_EEEEd,
                          __ZN10ClipperLib13ClipperOffset8AddPathsERKNSt3__16vectorINS2_INS_8IntPointENS1_9allocatorIS3_EEEENS4_IS6_EEEENS_8JoinTypeENS_7EndTypeE,
                          __ZN10ClipperLib13ClipperOffset8DoOffsetEd, __ZN10ClipperLib13ClipperOffset8DoSquareEii,
                          __ZN10ClipperLib13ClipperOffsetC1Edd, __ZN10ClipperLib13ClipperOffsetC2Edd,
                          __ZN10ClipperLib13ClipperOffsetD1Ev, __ZN10ClipperLib13ClipperOffsetD2Ev,
                          __ZN10ClipperLib13DisposeOutPtsERPNS_5OutPtE, __ZN10ClipperLib13GetMaximaPairEPNS_5TEdgeE,
                          __ZN10ClipperLib13GetUnitNormalERKNS_8IntPointES2_,
                          __ZN10ClipperLib13MinkowskiDiffERKNSt3__16vectorINS_8IntPointENS0_9allocatorIS2_EEEES7_RNS1_IS5_NS3_IS5_EEEE,
                          __ZN10ClipperLib13PointIsVertexERKNS_8IntPointEPNS_5OutPtE,
                          __ZN10ClipperLib13TranslatePathERKNSt3__16vectorINS_8IntPointENS0_9allocatorIS2_EEEERS5_S2_,
                          __ZN10ClipperLib14FindNextLocMinEPNS_5TEdgeE,
                          __ZN10ClipperLib14IntersectPointERNS_5TEdgeES1_RNS_8IntPointE,
                          __ZN10ClipperLib14PointInPolygonERKNS_8IntPointEPNS_5OutPtE,
                          __ZN10ClipperLib14PointInPolygonERKNS_8IntPointERKNSt3__16vectorIS0_NS3_9allocatorIS0_EEEE,
                          __ZN10ClipperLib14PointsAreCloseENS_8IntPointES0_d, __ZN10ClipperLib15FirstIsBottomPtEPKNS_5OutPtES2_,
                          __ZN10ClipperLib15GetLowermostRecEPNS_6OutRecES1_, __ZN10ClipperLib15GetMaximaPairExEPNS_5TEdgeE,
                          __ZN10ClipperLib15PolyTreeToPathsERKNS_8PolyTreeERNSt3__16vectorINS4_INS_8IntPointENS3_9allocatorIS5_EEEENS6_IS8_EEEE,
                          __ZN10ClipperLib15SimplifyPolygonERKNSt3__16vectorINS_8IntPointENS0_9allocatorIS2_EEEERNS1_IS5_NS3_IS5_EEEENS_12PolyFillTypeE,
                          __ZN10ClipperLib16GetHorzDirectionERNS_5TEdgeERNS_9DirectionERxS4_,
                          __ZN10ClipperLib16SimplifyPolygonsERKNSt3__16vectorINS1_INS_8IntPointENS0_9allocatorIS2_EEEENS3_IS5_EEEERS7_NS_12PolyFillTypeE,
                          __ZN10ClipperLib16SimplifyPolygonsERNSt3__16vectorINS1_INS_8IntPointENS0_9allocatorIS2_EEEENS3_IS5_EEEENS_12PolyFillTypeE,
                          __ZN10ClipperLib17GetOverlapSegmentENS_8IntPointES0_S0_S0_RS0_S1_,
                          __ZN10ClipperLib17IntersectListSortEPNS_13IntersectNodeES1_,
                          __ZN10ClipperLib18AddPolyNodeToPathsERKNS_8PolyNodeENS_8NodeTypeERNSt3__16vectorINS5_INS_8IntPointENS4_9allocatorIS6_EEEENS7_IS9_EEEE,
                          __ZN10ClipperLib18Poly2ContainsPoly1EPNS_5OutPtES1_, __ZN10ClipperLib18ReversePolyPtLinksEPNS_5OutPtE,
                          __ZN10ClipperLib18SwapIntersectNodesERNS_13IntersectNodeES1_, __ZN10ClipperLib19HorzSegmentsOverlapExxxx,
                          __ZN10ClipperLib19SlopesNearCollinearERKNS_8IntPointES2_S2_d,
                          __ZN10ClipperLib20DistanceFromLineSqrdERKNS_8IntPointES2_S2_,
                          __ZN10ClipperLib21OpenPathsFromPolyTreeERNS_8PolyTreeERNSt3__16vectorINS3_INS_8IntPointENS2_9allocatorIS4_EEEENS5_IS7_EEEE,
                          __ZN10ClipperLib21OutRec1RightOfOutRec2EPNS_6OutRecES1_,
                          __ZN10ClipperLib21Pt2IsBetweenPt1AndPt3ENS_8IntPointES0_S0_,
                          __ZN10ClipperLib23ClosedPathsFromPolyTreeERKNS_8PolyTreeERNSt3__16vectorINS4_INS_8IntPointENS3_9allocatorIS5_EEEENS6_IS8_EEEE,
                          __ZN10ClipperLib4AreaEPKNS_5OutPtE, __ZN10ClipperLib4AreaERKNS_6OutRecE,
                          __ZN10ClipperLib4AreaERKNSt3__16vectorINS_8IntPointENS0_9allocatorIS2_EEEE,
                          __ZN10ClipperLib7Clipper10ClearJoinsEv, __ZN10ClipperLib7Clipper10JoinPointsEPNS_4JoinEPNS_6OutRecES4_,
                          __ZN10ClipperLib7Clipper11BuildResultERNSt3__16vectorINS2_INS_8IntPointENS1_9allocatorIS3_EEEENS4_IS6_EEEE,
                          __ZN10ClipperLib7Clipper12AddEdgeToSELEPNS_5TEdgeE,
                          __ZN10ClipperLib7Clipper12AddGhostJoinEPNS_5OutPtENS_8IntPointE,
                          __ZN10ClipperLib7Clipper12BuildResult2ERNS_8PolyTreeE, __ZN10ClipperLib7Clipper12CopyAELToSELEv,
                          __ZN10ClipperLib7Clipper12GetLastOutPtEPNS_5TEdgeE,
                          __ZN10ClipperLib7Clipper12SetHoleStateEPNS_5TEdgeEPNS_6OutRecE,
                          __ZN10ClipperLib7Clipper13AppendPolygonEPNS_5TEdgeES2_,
                          __ZN10ClipperLib7Clipper13DeleteFromSELEPNS_5TEdgeE,
                          __ZN10ClipperLib7Clipper13ZFillFunctionEPFvRNS_8IntPointES2_S2_S2_S2_E,
                          __ZN10ClipperLib7Clipper14FixHoleLinkageERNS_6OutRecE,
                          __ZN10ClipperLib7Clipper14IntersectEdgesEPNS_5TEdgeES2_RNS_8IntPointE,
                          __ZN10ClipperLib7Clipper14PopEdgeFromSELERPNS_5TEdgeE,
                          __ZN10ClipperLib7Clipper15AddLocalMaxPolyEPNS_5TEdgeES2_RKNS_8IntPointE,
                          __ZN10ClipperLib7Clipper15AddLocalMinPolyEPNS_5TEdgeES2_RKNS_8IntPointE,
                          __ZN10ClipperLib7Clipper15ClearGhostJoinsEv, __ZN10ClipperLib7Clipper15ExecuteInternalEv,
                          __ZN10ClipperLib7Clipper15FixupOutPolygonERNS_6OutRecE, __ZN10ClipperLib7Clipper15JoinCommonEdgesEv,
                          __ZN10ClipperLib7Clipper15SetWindingCountERNS_5TEdgeE, __ZN10ClipperLib7Clipper16DoSimplePolygonsEv,
                          __ZN10ClipperLib7Clipper16FixupFirstLefts1EPNS_6OutRecES2_,
                          __ZN10ClipperLib7Clipper16FixupFirstLefts2EPNS_6OutRecES2_,
                          __ZN10ClipperLib7Clipper16FixupFirstLefts3EPNS_6OutRecES2_,
                          __ZN10ClipperLib7Clipper16FixupOutPolylineERNS_6OutRecE,
                          __ZN10ClipperLib7Clipper17InsertEdgeIntoAELEPNS_5TEdgeES2_,
                          __ZN10ClipperLib7Clipper17ProcessHorizontalEPNS_5TEdgeE, __ZN10ClipperLib7Clipper18BuildIntersectListEx,
                          __ZN10ClipperLib7Clipper18ProcessHorizontalsEv,
                          __ZN10ClipperLib7Clipper18SwapPositionsInSELEPNS_5TEdgeES2_,
                          __ZN10ClipperLib7Clipper20ProcessIntersectListEv, __ZN10ClipperLib7Clipper20ProcessIntersectionsEx,
                          __ZN10ClipperLib7Clipper21DisposeIntersectNodesEv, __ZN10ClipperLib7Clipper22FixupIntersectionOrderEv,
                          __ZN10ClipperLib7Clipper24InsertLocalMinimaIntoAELEx,
                          __ZN10ClipperLib7Clipper27ProcessEdgesAtTopOfScanbeamEx,
                          __ZN10ClipperLib7Clipper4SetZERNS_8IntPointERNS_5TEdgeES4_,
                          __ZN10ClipperLib7Clipper7AddJoinEPNS_5OutPtES2_NS_8IntPointE,
                          __ZN10ClipperLib7Clipper7ExecuteENS_8ClipTypeERNS_8PolyTreeENS_12PolyFillTypeE,
                          __ZN10ClipperLib7Clipper7ExecuteENS_8ClipTypeERNS_8PolyTreeENS_12PolyFillTypeES4_,
                          __ZN10ClipperLib7Clipper7ExecuteENS_8ClipTypeERNSt3__16vectorINS3_INS_8IntPointENS2_9allocatorIS4_EEEENS5_IS7_EEEENS_12PolyFillTypeE,
                          __ZN10ClipperLib7Clipper7ExecuteENS_8ClipTypeERNSt3__16vectorINS3_INS_8IntPointENS2_9allocatorIS4_EEEENS5_IS7_EEEENS_12PolyFillTypeESB_,
                          __ZN10ClipperLib7Clipper8AddOutPtEPNS_5TEdgeERKNS_8IntPointE,
                          __ZN10ClipperLib7Clipper8DoMaximaEPNS_5TEdgeE, __ZN10ClipperLib7Clipper9GetOutRecEi,
                          __ZN10ClipperLib7ClipperC1Ei, __ZN10ClipperLib7ClipperC2Ei, __ZN10ClipperLib8DupOutPtEPNS_5OutPtEb,
                          __ZN10ClipperLib8JoinHorzEPNS_5OutPtES1_S1_S1_NS_8IntPointEb, __ZN10ClipperLib8PolyNode8AddChildERS0_,
                          __ZN10ClipperLib8PolyNodeC1Ev, __ZN10ClipperLib8PolyNodeC2Ev, __ZN10ClipperLib8PolyTree5ClearEv,
                          __ZN10ClipperLib9ExcludeOpEPNS_5OutPtE, __ZN10ClipperLib9InitEdge2ERNS_5TEdgeENS_8PolyTypeE,
                          __ZN10ClipperLib9Int128MulExx,
                          __ZN10ClipperLib9MinkowskiERKNSt3__16vectorINS_8IntPointENS0_9allocatorIS2_EEEES7_RNS1_IS5_NS3_IS5_EEEEbb,
                          __ZN10ClipperLib9RangeTestERKNS_8IntPointERb,
                          __ZN10ClipperLiblsERNSt3__113basic_ostreamIcNS0_11char_traitsIcEEEERKNS0_6vectorINS6_INS_8IntPointENS0_9allocatorIS7_EEEENS8_ISA_EEEE,
                          __ZN10ClipperLiblsERNSt3__113basic_ostreamIcNS0_11char_traitsIcEEEERKNS0_6vectorINS_8IntPointENS0_9allocatorIS7_EEEE,
                          __ZN10ClipperLiblsERNSt3__113basic_ostreamIcNS0_11char_traitsIcEEEERKNS_8IntPointE,
                          __ZN13PKRunningStat4pushEd, __ZN13PKRunningStat5clearEd, __ZN13PKRunningStatC1Ev, __ZN13PKRunningStatC2Ev,
                          __ZN14legacy_drawing10Parameters8readFromERN2PB6ReaderE, __ZN14legacy_drawing10ParametersC1EOS0_,
                          __ZN14legacy_drawing10ParametersC1ERKS0_, __ZN14legacy_drawing10ParametersC1Ev,
                          __ZN14legacy_drawing10ParametersC2EOS0_, __ZN14legacy_drawing10ParametersC2ERKS0_,
                          __ZN14legacy_drawing10ParametersC2Ev, __ZN14legacy_drawing10ParametersD0Ev,
                          __ZN14legacy_drawing10ParametersD1Ev, __ZN14legacy_drawing10ParametersD2Ev,
                          __ZN14legacy_drawing10ParametersaSEOS0_, __ZN14legacy_drawing10ParametersaSERKS0_,
                          __ZN14legacy_drawing15VectorTimestamp8readFromERN2PB6ReaderE,
                          __ZN14legacy_drawing15VectorTimestampC1EOS0_, __ZN14legacy_drawing15VectorTimestampC1ERKS0_,
                          __ZN14legacy_drawing15VectorTimestampC1Ev, __ZN14legacy_drawing15VectorTimestampC2EOS0_,
                          __ZN14legacy_drawing15VectorTimestampC2ERKS0_, __ZN14legacy_drawing15VectorTimestampC2Ev,
                          __ZN14legacy_drawing15VectorTimestampD0Ev, __ZN14legacy_drawing15VectorTimestampD1Ev,
                          __ZN14legacy_drawing15VectorTimestampD2Ev, __ZN14legacy_drawing15VectorTimestampaSEOS0_,
                          __ZN14legacy_drawing15VectorTimestampaSERKS0_,
                          __ZN14legacy_drawing20VectorTimestampClock8readFromERN2PB6ReaderE,
                          __ZN14legacy_drawing20VectorTimestampClockC1EOS0_, __ZN14legacy_drawing20VectorTimestampClockC1ERKS0_,
                          __ZN14legacy_drawing20VectorTimestampClockC1Ev, __ZN14legacy_drawing20VectorTimestampClockC2EOS0_,
                          __ZN14legacy_drawing20VectorTimestampClockC2ERKS0_, __ZN14legacy_drawing20VectorTimestampClockC2Ev,
                          __ZN14legacy_drawing20VectorTimestampClockD0Ev, __ZN14legacy_drawing20VectorTimestampClockD1Ev,
                          __ZN14legacy_drawing20VectorTimestampClockD2Ev, __ZN14legacy_drawing20VectorTimestampClockaSEOS0_,
                          __ZN14legacy_drawing20VectorTimestampClockaSERKS0_,
                          __ZN14legacy_drawing32VectorTimestampClockReplicaClock8readFromERN2PB6ReaderE,
                          __ZN14legacy_drawing32VectorTimestampClockReplicaClockC1EOS0_,
                          __ZN14legacy_drawing32VectorTimestampClockReplicaClockC1ERKS0_,
                          __ZN14legacy_drawing32VectorTimestampClockReplicaClockC1Ev,
                          __ZN14legacy_drawing32VectorTimestampClockReplicaClockC2EOS0_,
                          __ZN14legacy_drawing32VectorTimestampClockReplicaClockC2ERKS0_,
                          __ZN14legacy_drawing32VectorTimestampClockReplicaClockC2Ev,
                          __ZN14legacy_drawing32VectorTimestampClockReplicaClockD0Ev,
                          __ZN14legacy_drawing32VectorTimestampClockReplicaClockD1Ev,
                          __ZN14legacy_drawing32VectorTimestampClockReplicaClockD2Ev,
                          __ZN14legacy_drawing32VectorTimestampClockReplicaClockaSEOS0_,
                          __ZN14legacy_drawing32VectorTimestampClockReplicaClockaSERKS0_,
                          __ZN14legacy_drawing4swapERNS_10ParametersES1_, __ZN14legacy_drawing4swapERNS_15VectorTimestampES1_,
                          __ZN14legacy_drawing4swapERNS_20VectorTimestampClockES1_,
                          __ZN14legacy_drawing4swapERNS_32VectorTimestampClockReplicaClockES1_,
                          __ZN14legacy_drawing4swapERNS_5ColorES1_, __ZN14legacy_drawing4swapERNS_5PointES1_,
                          __ZN14legacy_drawing4swapERNS_7CommandES1_, __ZN14legacy_drawing4swapERNS_7DrawingES1_,
                          __ZN14legacy_drawing4swapERNS_9CommandIDES1_, __ZN14legacy_drawing4swapERNS_9RectangleES1_,
                          __ZN14legacy_drawing5Color8readFromERN2PB6ReaderE, __ZN14legacy_drawing5ColorC1EOS0_,
                          __ZN14legacy_drawing5ColorC1ERKS0_, __ZN14legacy_drawing5ColorC1Ev, __ZN14legacy_drawing5ColorC2EOS0_,
                          __ZN14legacy_drawing5ColorC2ERKS0_, __ZN14legacy_drawing5ColorC2Ev, __ZN14legacy_drawing5ColorD0Ev,
                          __ZN14legacy_drawing5ColorD1Ev, __ZN14legacy_drawing5ColorD2Ev, __ZN14legacy_drawing5ColoraSEOS0_,
                          __ZN14legacy_drawing5ColoraSERKS0_, __ZN14legacy_drawing5Point8readFromERN2PB6ReaderE,
                          __ZN14legacy_drawing5PointC1EOS0_, __ZN14legacy_drawing5PointC1ERKS0_, __ZN14legacy_drawing5PointC1Ev,
                          __ZN14legacy_drawing5PointC2EOS0_, __ZN14legacy_drawing5PointC2ERKS0_, __ZN14legacy_drawing5PointC2Ev,
                          __ZN14legacy_drawing5PointD0Ev, __ZN14legacy_drawing5PointD1Ev, __ZN14legacy_drawing5PointD2Ev,
                          __ZN14legacy_drawing5PointaSEOS0_, __ZN14legacy_drawing5PointaSERKS0_,
                          __ZN14legacy_drawing7Command10makeBoundsEv, __ZN14legacy_drawing7Command13makeCommandIDEv,
                          __ZN14legacy_drawing7Command13makeTimestampEv, __ZN14legacy_drawing7Command14makeBaseValuesEv,
                          __ZN14legacy_drawing7Command14makeClipNormalEv, __ZN14legacy_drawing7Command14makeClipOriginEv,
                          __ZN14legacy_drawing7Command14makeParametersEv, __ZN14legacy_drawing7Command8readFromERN2PB6ReaderE,
                          __ZN14legacy_drawing7Command9makeColorEv, __ZN14legacy_drawing7CommandC1EOS0_,
                          __ZN14legacy_drawing7CommandC1ERKS0_, __ZN14legacy_drawing7CommandC1Ev, __ZN14legacy_drawing7CommandC2EOS0_,
                          __ZN14legacy_drawing7CommandC2ERKS0_, __ZN14legacy_drawing7CommandC2Ev, __ZN14legacy_drawing7CommandD0Ev,
                          __ZN14legacy_drawing7CommandD1Ev, __ZN14legacy_drawing7CommandD2Ev, __ZN14legacy_drawing7CommandaSEOS0_,
                          __ZN14legacy_drawing7CommandaSERKS0_, __ZN14legacy_drawing7Drawing13makeTimestampEv,
                          __ZN14legacy_drawing7Drawing19makeUnrotatedBoundsEv, __ZN14legacy_drawing7Drawing8readFromERN2PB6ReaderE,
                          __ZN14legacy_drawing7DrawingC1EOS0_, __ZN14legacy_drawing7DrawingC1ERKS0_, __ZN14legacy_drawing7DrawingC1Ev,
                          __ZN14legacy_drawing7DrawingC2EOS0_, __ZN14legacy_drawing7DrawingC2ERKS0_, __ZN14legacy_drawing7DrawingC2Ev,
                          __ZN14legacy_drawing7DrawingD0Ev, __ZN14legacy_drawing7DrawingD1Ev, __ZN14legacy_drawing7DrawingD2Ev,
                          __ZN14legacy_drawing7DrawingaSEOS0_, __ZN14legacy_drawing7DrawingaSERKS0_,
                          __ZN14legacy_drawing9CommandID8readFromERN2PB6ReaderE, __ZN14legacy_drawing9CommandIDC1EOS0_,
                          __ZN14legacy_drawing9CommandIDC1ERKS0_, __ZN14legacy_drawing9CommandIDC1Ev,
                          __ZN14legacy_drawing9CommandIDC2EOS0_, __ZN14legacy_drawing9CommandIDC2ERKS0_,
                          __ZN14legacy_drawing9CommandIDC2Ev, __ZN14legacy_drawing9CommandIDD0Ev, __ZN14legacy_drawing9CommandIDD1Ev,
                          __ZN14legacy_drawing9CommandIDD2Ev, __ZN14legacy_drawing9CommandIDaSEOS0_,
                          __ZN14legacy_drawing9CommandIDaSERKS0_, __ZN14legacy_drawing9Rectangle8readFromERN2PB6ReaderE,
                          __ZN14legacy_drawing9RectangleC1EOS0_, __ZN14legacy_drawing9RectangleC1ERKS0_,
                          __ZN14legacy_drawing9RectangleC1Ev, __ZN14legacy_drawing9RectangleC2EOS0_,
                          __ZN14legacy_drawing9RectangleC2ERKS0_, __ZN14legacy_drawing9RectangleC2Ev,
                          __ZN14legacy_drawing9RectangleD0Ev, __ZN14legacy_drawing9RectangleD1Ev, __ZN14legacy_drawing9RectangleD2Ev,
                          __ZN14legacy_drawing9RectangleaSEOS0_, __ZN14legacy_drawing9RectangleaSERKS0_,
                          __ZN15PKInputSmoother19drawingBeganWithInkEP5PKInk11PKInputTyped,
                          __ZN15PKInputSmoother24smoothCurvaturesDistanceERNSt3__16vectorI16PKSmoothingPointNS0_9allocatorIS2_EEEE,
                          __ZN15PKInputSmoother3runEv, __ZN18versioned_document4swapERNS_7VersionES1_,
                          __ZN18versioned_document4swapERNS_8DocumentES1_, __ZN18versioned_document7Version8readFromERN2PB6ReaderE,
                          __ZN18versioned_document7VersionC1EOS0_, __ZN18versioned_document7VersionC1ERKS0_,
                          __ZN18versioned_document7VersionC1Ev, __ZN18versioned_document7VersionC2EOS0_,
                          __ZN18versioned_document7VersionC2ERKS0_, __ZN18versioned_document7VersionC2Ev,
                          __ZN18versioned_document7VersionD0Ev, __ZN18versioned_document7VersionD1Ev,
                          __ZN18versioned_document7VersionD2Ev, __ZN18versioned_document7VersionaSEOS0_,
                          __ZN18versioned_document7VersionaSERKS0_, __ZN18versioned_document8Document8readFromERN2PB6ReaderE,
                          __ZN18versioned_document8DocumentC1EOS0_, __ZN18versioned_document8DocumentC1ERKS0_,
                          __ZN18versioned_document8DocumentC1Ev, __ZN18versioned_document8DocumentC2EOS0_,
                          __ZN18versioned_document8DocumentC2ERKS0_, __ZN18versioned_document8DocumentC2Ev,
                          __ZN18versioned_document8DocumentD0Ev, __ZN18versioned_document8DocumentD1Ev,
                          __ZN18versioned_document8DocumentD2Ev, __ZN18versioned_document8DocumentaSEOS0_,
                          __ZN18versioned_document8DocumentaSERKS0_, __ZN19_PKStrokeDataPoints11setLocationE7CGPointm,
                          __ZN19_PKStrokeDataPointsC1EPK26_PKStrokeDataPointsPrivate,
                          __ZN19_PKStrokeDataPointsC2EPK26_PKStrokeDataPointsPrivate, __ZN20PKRulerExtremaFilter10isReversalEv,
                          __ZN20PKRulerExtremaFilter19drawingBeganWithInkEP5PKInk11PKInputTyped,
                          __ZN20PKRulerExtremaFilter25copyUpdatedRangeFromIndexEmPNSt3__16vectorI14_PKStrokePointNS0_9allocatorIS2_EEEE,
                          __ZN20PKRulerExtremaFilter3runEv, __ZN22PKInputProviderInitial24getUpdatedRangeFromIndexEPm,
                          __ZN22PKInputProviderInitial25copyUpdatedRangeFromIndexEmPNSt3__16vectorI12PKInputPointNS0_9allocatorIS2_EEEE,
                          __ZN22PKInputProviderInitial5resetEv, __ZN23PKCompressedStrokePoint10setAzimuthEd,
                          __ZN23PKCompressedStrokePoint10setOpacityEd, __ZN23PKCompressedStrokePoint11setAltitudeEd,
                          __ZN23PKCompressedStrokePoint11setLocationE7CGPoint, __ZN23PKCompressedStrokePoint12setEdgeWidthEd,
                          __ZN23PKCompressedStrokePoint12setTimestampEdd, __ZN23PKCompressedStrokePoint14setAspectRatioEd,
                          __ZN23PKCompressedStrokePoint8setForceEd, __ZN23PKCompressedStrokePoint9setRadiusEd,
                          __ZN23PKProtobufUnknownFields10addTestIntEij, __ZN23PKProtobufUnknownFields24_decrementRecursionDepthEv,
                          __ZN23PKProtobufUnknownFields24_incrementRecursionDepthEv,
                          __ZN23PKProtobufUnknownFields3addEjhRN2PB6ReaderE, __ZN23PKProtobufUnknownFields7writeToERN2PB6WriterE,
                          __ZN23PKProtobufUnknownFieldsC1Ev, __ZN23PKProtobufUnknownFieldsC2Ev, __ZN23PKProtobufUnknownFieldsD1Ev,
                          __ZN23PKProtobufUnknownFieldsD2Ev, __ZN25PKCompressedStrokePointV110setAzimuthEd,
                          __ZN25PKCompressedStrokePointV110setOpacityEd, __ZN25PKCompressedStrokePointV111setAltitudeEd,
                          __ZN25PKCompressedStrokePointV111setLocationE7CGPoint, __ZN25PKCompressedStrokePointV112setEdgeWidthEd,
                          __ZN25PKCompressedStrokePointV112setTimestampEdd, __ZN25PKCompressedStrokePointV114setAspectRatioEd,
                          __ZN25PKCompressedStrokePointV18setForceEd, __ZN25PKCompressedStrokePointV19setRadiusEd,
                          __ZN2RB12packed_half2aSEDv2_f, __ZN2RB12packed_half3aSEDv3_f, __ZN2RB12packed_half4aSEDv4_f,
                          __ZN2RB4half11from_float_Ej, __ZN2RB4half13from_float_n_EPtmPKf, __ZN2RB4half8to_floatEt,
                          __ZN7drawing10StrokeData8readFromERN2PB6ReaderE, __ZN7drawing10StrokeDataC1EOS0_,
                          __ZN7drawing10StrokeDataC1ERKS0_, __ZN7drawing10StrokeDataC1Ev, __ZN7drawing10StrokeDataC2EOS0_,
                          __ZN7drawing10StrokeDataC2ERKS0_, __ZN7drawing10StrokeDataC2Ev, __ZN7drawing10StrokeDataD0Ev,
                          __ZN7drawing10StrokeDataD1Ev, __ZN7drawing10StrokeDataD2Ev, __ZN7drawing10StrokeDataaSEOS0_,
                          __ZN7drawing10StrokeDataaSERKS0_, __ZN7drawing11StrokeDelta10makeStrokeEv,
                          __ZN7drawing11StrokeDelta14makeStrokeDataEv, __ZN7drawing11StrokeDelta7makeInkEv,
                          __ZN7drawing11StrokeDelta8readFromERN2PB6ReaderE, __ZN7drawing11StrokeDeltaC1EOS0_,
                          __ZN7drawing11StrokeDeltaC1ERKS0_, __ZN7drawing11StrokeDeltaC1Ev, __ZN7drawing11StrokeDeltaC2EOS0_,
                          __ZN7drawing11StrokeDeltaC2ERKS0_, __ZN7drawing11StrokeDeltaC2Ev, __ZN7drawing11StrokeDeltaD0Ev,
                          __ZN7drawing11StrokeDeltaD1Ev, __ZN7drawing11StrokeDeltaD2Ev, __ZN7drawing11StrokeDeltaaSEOS0_,
                          __ZN7drawing11StrokeDeltaaSERKS0_, __ZN7drawing3Ink8readFromERN2PB6ReaderE, __ZN7drawing3Ink9makeColorEv,
                          __ZN7drawing3InkC1EOS0_, __ZN7drawing3InkC1ERKS0_, __ZN7drawing3InkC1Ev, __ZN7drawing3InkC2EOS0_,
                          __ZN7drawing3InkC2ERKS0_, __ZN7drawing3InkC2Ev, __ZN7drawing3InkD0Ev, __ZN7drawing3InkD1Ev,
                          __ZN7drawing3InkD2Ev, __ZN7drawing3InkaSEOS0_, __ZN7drawing3InkaSERKS0_,
                          __ZN7drawing4swapERNS_10StrokeDataES1_, __ZN7drawing4swapERNS_11StrokeDeltaES1_,
                          __ZN7drawing4swapERNS_3InkES1_, __ZN7drawing4swapERNS_5ColorES1_, __ZN7drawing4swapERNS_5PointES1_,
                          __ZN7drawing4swapERNS_6StrokeES1_, __ZN7drawing4swapERNS_7DrawingES1_, __ZN7drawing4swapERNS_8StrokeIDES1_,
                          __ZN7drawing4swapERNS_9RectangleES1_, __ZN7drawing4swapERNS_9TransformES1_,
                          __ZN7drawing5Color8readFromERN2PB6ReaderE, __ZN7drawing5ColorC1EOS0_, __ZN7drawing5ColorC1ERKS0_,
                          __ZN7drawing5ColorC1Ev, __ZN7drawing5ColorC2EOS0_, __ZN7drawing5ColorC2ERKS0_, __ZN7drawing5ColorC2Ev,
                          __ZN7drawing5ColorD0Ev, __ZN7drawing5ColorD1Ev, __ZN7drawing5ColorD2Ev, __ZN7drawing5ColoraSEOS0_,
                          __ZN7drawing5ColoraSERKS0_, __ZN7drawing5Point8readFromERN2PB6ReaderE, __ZN7drawing5PointC1EOS0_,
                          __ZN7drawing5PointC1ERKS0_, __ZN7drawing5PointC1Ev, __ZN7drawing5PointC2EOS0_, __ZN7drawing5PointC2ERKS0_,
                          __ZN7drawing5PointC2Ev, __ZN7drawing5PointD0Ev, __ZN7drawing5PointD1Ev, __ZN7drawing5PointD2Ev,
                          __ZN7drawing5PointaSEOS0_, __ZN7drawing5PointaSERKS0_, __ZN7drawing6Stroke10makeBoundsEv,
                          __ZN7drawing6Stroke10makeSortIDEv, __ZN7drawing6Stroke11makeVersionEv, __ZN7drawing6Stroke13makeTransformEv,
                          __ZN7drawing6Stroke14makeStrokeDataEv, __ZN7drawing6Stroke21makeSubstrokesVersionEv,
                          __ZN7drawing6Stroke8readFromERN2PB6ReaderE, __ZN7drawing6StrokeC1EOS0_, __ZN7drawing6StrokeC1ERKS0_,
                          __ZN7drawing6StrokeC1Ev, __ZN7drawing6StrokeC2EOS0_, __ZN7drawing6StrokeC2ERKS0_, __ZN7drawing6StrokeC2Ev,
                          __ZN7drawing6StrokeD0Ev, __ZN7drawing6StrokeD1Ev, __ZN7drawing6StrokeD2Ev, __ZN7drawing6StrokeaSEOS0_,
                          __ZN7drawing6StrokeaSERKS0_, __ZN7drawing7Drawing10makeBoundsEv, __ZN7drawing7Drawing17makeBoundsVersionEv,
                          __ZN7drawing7Drawing8readFromERN2PB6ReaderE, __ZN7drawing7DrawingC1EOS0_, __ZN7drawing7DrawingC1ERKS0_,
                          __ZN7drawing7DrawingC1Ev, __ZN7drawing7DrawingC2EOS0_, __ZN7drawing7DrawingC2ERKS0_, __ZN7drawing7DrawingC2Ev,
                          __ZN7drawing7DrawingD0Ev, __ZN7drawing7DrawingD1Ev, __ZN7drawing7DrawingD2Ev, __ZN7drawing7DrawingaSEOS0_,
                          __ZN7drawing7DrawingaSERKS0_, __ZN7drawing8StrokeID8readFromERN2PB6ReaderE, __ZN7drawing8StrokeIDC1EOS0_,
                          __ZN7drawing8StrokeIDC1ERKS0_, __ZN7drawing8StrokeIDC1Ev, __ZN7drawing8StrokeIDC2EOS0_,
                          __ZN7drawing8StrokeIDC2ERKS0_, __ZN7drawing8StrokeIDC2Ev, __ZN7drawing8StrokeIDD0Ev,
                          __ZN7drawing8StrokeIDD1Ev, __ZN7drawing8StrokeIDD2Ev, __ZN7drawing8StrokeIDaSEOS0_,
                          __ZN7drawing8StrokeIDaSERKS0_, __ZN7drawing9Rectangle8readFromERN2PB6ReaderE, __ZN7drawing9RectangleC1EOS0_,
                          __ZN7drawing9RectangleC1ERKS0_, __ZN7drawing9RectangleC1Ev, __ZN7drawing9RectangleC2EOS0_,
                          __ZN7drawing9RectangleC2ERKS0_, __ZN7drawing9RectangleC2Ev, __ZN7drawing9RectangleD0Ev,
                          __ZN7drawing9RectangleD1Ev, __ZN7drawing9RectangleD2Ev, __ZN7drawing9RectangleaSEOS0_,
                          __ZN7drawing9RectangleaSERKS0_, __ZN7drawing9Transform8readFromERN2PB6ReaderE,
                          __ZN7drawing9TransformC1EOS0_, __ZN7drawing9TransformC1ERKS0_, __ZN7drawing9TransformC1Ev,
                          __ZN7drawing9TransformC2EOS0_, __ZN7drawing9TransformC2ERKS0_, __ZN7drawing9TransformC2Ev,
                          __ZN7drawing9TransformD0Ev, __ZN7drawing9TransformD1Ev, __ZN7drawing9TransformD2Ev,
                          __ZN7drawing9TransformaSEOS0_, __ZN7drawing9TransformaSERKS0_, __ZN9drawingV13Ink8readFromERN2PB6ReaderE,
                          __ZN9drawingV13Ink9makeColorEv, __ZN9drawingV13InkC1EOS0_, __ZN9drawingV13InkC1ERKS0_, __ZN9drawingV13InkC1Ev,
                          __ZN9drawingV13InkC2EOS0_, __ZN9drawingV13InkC2ERKS0_, __ZN9drawingV13InkC2Ev, __ZN9drawingV13InkD0Ev,
                          __ZN9drawingV13InkD1Ev, __ZN9drawingV13InkD2Ev, __ZN9drawingV13InkaSEOS0_, __ZN9drawingV13InkaSERKS0_,
                          __ZN9drawingV14swapERNS_3InkES1_, __ZN9drawingV14swapERNS_5ColorES1_, __ZN9drawingV14swapERNS_5PointES1_,
                          __ZN9drawingV14swapERNS_6StrokeES1_, __ZN9drawingV14swapERNS_7DrawingES1_,
                          __ZN9drawingV14swapERNS_8StrokeIDES1_, __ZN9drawingV14swapERNS_9RectangleES1_,
                          __ZN9drawingV14swapERNS_9TransformES1_, __ZN9drawingV15Color8readFromERN2PB6ReaderE,
                          __ZN9drawingV15ColorC1EOS0_, __ZN9drawingV15ColorC1ERKS0_, __ZN9drawingV15ColorC1Ev,
                          __ZN9drawingV15ColorC2EOS0_, __ZN9drawingV15ColorC2ERKS0_, __ZN9drawingV15ColorC2Ev, __ZN9drawingV15ColorD0Ev,
                          __ZN9drawingV15ColorD1Ev, __ZN9drawingV15ColorD2Ev, __ZN9drawingV15ColoraSEOS0_, __ZN9drawingV15ColoraSERKS0_,
                          __ZN9drawingV15Point8readFromERN2PB6ReaderE, __ZN9drawingV15PointC1EOS0_, __ZN9drawingV15PointC1ERKS0_,
                          __ZN9drawingV15PointC1Ev, __ZN9drawingV15PointC2EOS0_, __ZN9drawingV15PointC2ERKS0_, __ZN9drawingV15PointC2Ev,
                          __ZN9drawingV15PointD0Ev, __ZN9drawingV15PointD1Ev, __ZN9drawingV15PointD2Ev, __ZN9drawingV15PointaSEOS0_,
                          __ZN9drawingV15PointaSERKS0_, __ZN9drawingV16Stroke10makeBoundsEv, __ZN9drawingV16Stroke11makeVersionEv,
                          __ZN9drawingV16Stroke12makeStrokeIDEv, __ZN9drawingV16Stroke13makeTransformEv,
                          __ZN9drawingV16Stroke8readFromERN2PB6ReaderE, __ZN9drawingV16StrokeC1EOS0_, __ZN9drawingV16StrokeC1ERKS0_,
                          __ZN9drawingV16StrokeC1Ev, __ZN9drawingV16StrokeC2EOS0_, __ZN9drawingV16StrokeC2ERKS0_,
                          __ZN9drawingV16StrokeC2Ev, __ZN9drawingV16StrokeD0Ev, __ZN9drawingV16StrokeD1Ev, __ZN9drawingV16StrokeD2Ev,
                          __ZN9drawingV16StrokeaSEOS0_, __ZN9drawingV16StrokeaSERKS0_, __ZN9drawingV17Drawing10makeBoundsEv,
                          __ZN9drawingV17Drawing17makeBoundsVersionEv, __ZN9drawingV17Drawing8readFromERN2PB6ReaderE,
                          __ZN9drawingV17DrawingC1EOS0_, __ZN9drawingV17DrawingC1ERKS0_, __ZN9drawingV17DrawingC1Ev,
                          __ZN9drawingV17DrawingC2EOS0_, __ZN9drawingV17DrawingC2ERKS0_, __ZN9drawingV17DrawingC2Ev,
                          __ZN9drawingV17DrawingD0Ev, __ZN9drawingV17DrawingD1Ev, __ZN9drawingV17DrawingD2Ev,
                          __ZN9drawingV17DrawingaSEOS0_, __ZN9drawingV17DrawingaSERKS0_,
                          __ZN9drawingV18StrokeID8readFromERN2PB6ReaderE, __ZN9drawingV18StrokeIDC1EOS0_,
                          __ZN9drawingV18StrokeIDC1ERKS0_, __ZN9drawingV18StrokeIDC1Ev, __ZN9drawingV18StrokeIDC2EOS0_,
                          __ZN9drawingV18StrokeIDC2ERKS0_, __ZN9drawingV18StrokeIDC2Ev, __ZN9drawingV18StrokeIDD0Ev,
                          __ZN9drawingV18StrokeIDD1Ev, __ZN9drawingV18StrokeIDD2Ev, __ZN9drawingV18StrokeIDaSEOS0_,
                          __ZN9drawingV18StrokeIDaSERKS0_, __ZN9drawingV19Rectangle8readFromERN2PB6ReaderE,
                          __ZN9drawingV19RectangleC1EOS0_, __ZN9drawingV19RectangleC1ERKS0_, __ZN9drawingV19RectangleC1Ev,
                          __ZN9drawingV19RectangleC2EOS0_, __ZN9drawingV19RectangleC2ERKS0_, __ZN9drawingV19RectangleC2Ev,
                          __ZN9drawingV19RectangleD0Ev, __ZN9drawingV19RectangleD1Ev, __ZN9drawingV19RectangleD2Ev,
                          __ZN9drawingV19RectangleaSEOS0_, __ZN9drawingV19RectangleaSERKS0_,
                          __ZN9drawingV19Transform8readFromERN2PB6ReaderE, __ZN9drawingV19TransformC1EOS0_,
                          __ZN9drawingV19TransformC1ERKS0_, __ZN9drawingV19TransformC1Ev, __ZN9drawingV19TransformC2EOS0_,
                          __ZN9drawingV19TransformC2ERKS0_, __ZN9drawingV19TransformC2Ev, __ZN9drawingV19TransformD0Ev,
                          __ZN9drawingV19TransformD1Ev, __ZN9drawingV19TransformD2Ev, __ZN9drawingV19TransformaSEOS0_,
                          __ZN9drawingV19TransformaSERKS0_, __ZNK10ClipperLib7Clipper14IsContributingERKNS_5TEdgeE,
                          __ZNK10ClipperLib7Clipper17IsEvenOddFillTypeERKNS_5TEdgeE,
                          __ZNK10ClipperLib7Clipper20IsEvenOddAltFillTypeERKNS_5TEdgeE, __ZNK10ClipperLib8PolyNode10ChildCountEv,
                          __ZNK10ClipperLib8PolyNode16GetNextSiblingUpEv, __ZNK10ClipperLib8PolyNode6IsHoleEv,
                          __ZNK10ClipperLib8PolyNode6IsOpenEv, __ZNK10ClipperLib8PolyNode7GetNextEv,
                          __ZNK10ClipperLib8PolyTree5TotalEv, __ZNK10ClipperLib8PolyTree8GetFirstEv,
                          __ZNK13PKRunningStat14countOverLimitEv, __ZNK13PKRunningStat17standardDeviationEv,
                          __ZNK13PKRunningStat3maxEv, __ZNK13PKRunningStat4meanEv, __ZNK13PKRunningStat5countEv,
                          __ZNK13PKRunningStat8varianceEv, __ZNK14legacy_drawing10Parameters10formatTextERN2PB13TextFormatterEPKc,
                          __ZNK14legacy_drawing10Parameters10hash_valueEv, __ZNK14legacy_drawing10Parameters7writeToERN2PB6WriterE,
                          __ZNK14legacy_drawing10ParameterseqERKS0_,
                          __ZNK14legacy_drawing15VectorTimestamp10formatTextERN2PB13TextFormatterEPKc,
                          __ZNK14legacy_drawing15VectorTimestamp10hash_valueEv,
                          __ZNK14legacy_drawing15VectorTimestamp7writeToERN2PB6WriterE,
                          __ZNK14legacy_drawing15VectorTimestampeqERKS0_,
                          __ZNK14legacy_drawing20VectorTimestampClock10formatTextERN2PB13TextFormatterEPKc,
                          __ZNK14legacy_drawing20VectorTimestampClock10hash_valueEv,
                          __ZNK14legacy_drawing20VectorTimestampClock7writeToERN2PB6WriterE,
                          __ZNK14legacy_drawing20VectorTimestampClockeqERKS0_,
                          __ZNK14legacy_drawing32VectorTimestampClockReplicaClock10formatTextERN2PB13TextFormatterEPKc,
                          __ZNK14legacy_drawing32VectorTimestampClockReplicaClock10hash_valueEv,
                          __ZNK14legacy_drawing32VectorTimestampClockReplicaClock7writeToERN2PB6WriterE,
                          __ZNK14legacy_drawing32VectorTimestampClockReplicaClockeqERKS0_,
                          __ZNK14legacy_drawing5Color10formatTextERN2PB13TextFormatterEPKc,
                          __ZNK14legacy_drawing5Color10hash_valueEv, __ZNK14legacy_drawing5Color7writeToERN2PB6WriterE,
                          __ZNK14legacy_drawing5ColoreqERKS0_, __ZNK14legacy_drawing5Point10formatTextERN2PB13TextFormatterEPKc,
                          __ZNK14legacy_drawing5Point10hash_valueEv, __ZNK14legacy_drawing5Point7writeToERN2PB6WriterE,
                          __ZNK14legacy_drawing5PointeqERKS0_, __ZNK14legacy_drawing7Command10formatTextERN2PB13TextFormatterEPKc,
                          __ZNK14legacy_drawing7Command10hash_valueEv, __ZNK14legacy_drawing7Command7writeToERN2PB6WriterE,
                          __ZNK14legacy_drawing7CommandeqERKS0_, __ZNK14legacy_drawing7Drawing10formatTextERN2PB13TextFormatterEPKc,
                          __ZNK14legacy_drawing7Drawing10hash_valueEv, __ZNK14legacy_drawing7Drawing7writeToERN2PB6WriterE,
                          __ZNK14legacy_drawing7DrawingeqERKS0_,
                          __ZNK14legacy_drawing9CommandID10formatTextERN2PB13TextFormatterEPKc,
                          __ZNK14legacy_drawing9CommandID10hash_valueEv, __ZNK14legacy_drawing9CommandID7writeToERN2PB6WriterE,
                          __ZNK14legacy_drawing9CommandIDeqERKS0_,
                          __ZNK14legacy_drawing9Rectangle10formatTextERN2PB13TextFormatterEPKc,
                          __ZNK14legacy_drawing9Rectangle10hash_valueEv, __ZNK14legacy_drawing9Rectangle7writeToERN2PB6WriterE,
                          __ZNK14legacy_drawing9RectangleeqERKS0_,
                          __ZNK18versioned_document7Version10formatTextERN2PB13TextFormatterEPKc,
                          __ZNK18versioned_document7Version10hash_valueEv, __ZNK18versioned_document7Version7writeToERN2PB6WriterE,
                          __ZNK18versioned_document7VersioneqERKS0_,
                          __ZNK18versioned_document8Document10formatTextERN2PB13TextFormatterEPKc,
                          __ZNK18versioned_document8Document10hash_valueEv,
                          __ZNK18versioned_document8Document7writeToERN2PB6WriterE, __ZNK18versioned_document8DocumenteqERKS0_,
                          __ZNK19_PKStrokeDataPoints12pointAtIndexEm, __ZNK19_PKStrokeDataPoints13constantFlagsEv,
                          __ZNK19_PKStrokeDataPoints15locationAtIndexEm, __ZNK19_PKStrokeDataPoints16timestampAtIndexEm,
                          __ZNK19_PKStrokeDataPoints5countEv, __ZNK19_PKStrokeDataPointsixEm,
                          __ZNK23PKCompressedStrokePoint11aspectRatioEv, __ZNK23PKCompressedStrokePoint5forceEv,
                          __ZNK23PKCompressedStrokePoint6radiusEv, __ZNK23PKCompressedStrokePoint7azimuthEv,
                          __ZNK23PKCompressedStrokePoint7opacityEv, __ZNK23PKCompressedStrokePoint8altitudeEv,
                          __ZNK23PKCompressedStrokePoint8locationEv, __ZNK23PKCompressedStrokePoint9edgeWidthEv,
                          __ZNK23PKCompressedStrokePoint9timestampEd, __ZNK23PKProtobufUnknownFields4dataEv,
                          __ZNK23PKProtobufUnknownFields8dataSizeEv, __ZNK25PKCompressedStrokePointV111aspectRatioEv,
                          __ZNK25PKCompressedStrokePointV15forceEv, __ZNK25PKCompressedStrokePointV16radiusEv,
                          __ZNK25PKCompressedStrokePointV17azimuthEv, __ZNK25PKCompressedStrokePointV17opacityEv,
                          __ZNK25PKCompressedStrokePointV18altitudeEv, __ZNK25PKCompressedStrokePointV18locationEv,
                          __ZNK25PKCompressedStrokePointV19edgeWidthEv, __ZNK25PKCompressedStrokePointV19timestampEd,
                          __ZNK7drawing10StrokeData10formatTextERN2PB13TextFormatterEPKc, __ZNK7drawing10StrokeData10hash_valueEv,
                          __ZNK7drawing10StrokeData7writeToERN2PB6WriterE, __ZNK7drawing10StrokeDataeqERKS0_,
                          __ZNK7drawing11StrokeDelta10formatTextERN2PB13TextFormatterEPKc, __ZNK7drawing11StrokeDelta10hash_valueEv,
                          __ZNK7drawing11StrokeDelta7writeToERN2PB6WriterE, __ZNK7drawing11StrokeDeltaeqERKS0_,
                          __ZNK7drawing3Ink10formatTextERN2PB13TextFormatterEPKc, __ZNK7drawing3Ink10hash_valueEv,
                          __ZNK7drawing3Ink7writeToERN2PB6WriterE, __ZNK7drawing3InkeqERKS0_,
                          __ZNK7drawing5Color10formatTextERN2PB13TextFormatterEPKc, __ZNK7drawing5Color10hash_valueEv,
                          __ZNK7drawing5Color7writeToERN2PB6WriterE, __ZNK7drawing5ColoreqERKS0_,
                          __ZNK7drawing5Point10formatTextERN2PB13TextFormatterEPKc, __ZNK7drawing5Point10hash_valueEv,
                          __ZNK7drawing5Point7writeToERN2PB6WriterE, __ZNK7drawing5PointeqERKS0_,
                          __ZNK7drawing6Stroke10formatTextERN2PB13TextFormatterEPKc, __ZNK7drawing6Stroke10hash_valueEv,
                          __ZNK7drawing6Stroke7writeToERN2PB6WriterE, __ZNK7drawing6StrokeeqERKS0_,
                          __ZNK7drawing7Drawing10formatTextERN2PB13TextFormatterEPKc, __ZNK7drawing7Drawing10hash_valueEv,
                          __ZNK7drawing7Drawing7writeToERN2PB6WriterE, __ZNK7drawing7DrawingeqERKS0_,
                          __ZNK7drawing8StrokeID10formatTextERN2PB13TextFormatterEPKc, __ZNK7drawing8StrokeID10hash_valueEv,
                          __ZNK7drawing8StrokeID7writeToERN2PB6WriterE, __ZNK7drawing8StrokeIDeqERKS0_,
                          __ZNK7drawing9Rectangle10formatTextERN2PB13TextFormatterEPKc, __ZNK7drawing9Rectangle10hash_valueEv,
                          __ZNK7drawing9Rectangle7writeToERN2PB6WriterE, __ZNK7drawing9RectangleeqERKS0_,
                          __ZNK7drawing9Transform10formatTextERN2PB13TextFormatterEPKc, __ZNK7drawing9Transform10hash_valueEv,
                          __ZNK7drawing9Transform7writeToERN2PB6WriterE, __ZNK7drawing9TransformeqERKS0_,
                          __ZNK9drawingV13Ink10formatTextERN2PB13TextFormatterEPKc, __ZNK9drawingV13Ink10hash_valueEv,
                          __ZNK9drawingV13Ink7writeToERN2PB6WriterE, __ZNK9drawingV13InkeqERKS0_,
                          __ZNK9drawingV15Color10formatTextERN2PB13TextFormatterEPKc, __ZNK9drawingV15Color10hash_valueEv,
                          __ZNK9drawingV15Color7writeToERN2PB6WriterE, __ZNK9drawingV15ColoreqERKS0_,
                          __ZNK9drawingV15Point10formatTextERN2PB13TextFormatterEPKc, __ZNK9drawingV15Point10hash_valueEv,
                          __ZNK9drawingV15Point7writeToERN2PB6WriterE, __ZNK9drawingV15PointeqERKS0_,
                          __ZNK9drawingV16Stroke10formatTextERN2PB13TextFormatterEPKc, __ZNK9drawingV16Stroke10hash_valueEv,
                          __ZNK9drawingV16Stroke7writeToERN2PB6WriterE, __ZNK9drawingV16StrokeeqERKS0_,
                          __ZNK9drawingV17Drawing10formatTextERN2PB13TextFormatterEPKc, __ZNK9drawingV17Drawing10hash_valueEv,
                          __ZNK9drawingV17Drawing7writeToERN2PB6WriterE, __ZNK9drawingV17DrawingeqERKS0_,
                          __ZNK9drawingV18StrokeID10formatTextERN2PB13TextFormatterEPKc, __ZNK9drawingV18StrokeID10hash_valueEv,
                          __ZNK9drawingV18StrokeID7writeToERN2PB6WriterE, __ZNK9drawingV18StrokeIDeqERKS0_,
                          __ZNK9drawingV19Rectangle10formatTextERN2PB13TextFormatterEPKc, __ZNK9drawingV19Rectangle10hash_valueEv,
                          __ZNK9drawingV19Rectangle7writeToERN2PB6WriterE, __ZNK9drawingV19RectangleeqERKS0_,
                          __ZNK9drawingV19Transform10formatTextERN2PB13TextFormatterEPKc, __ZNK9drawingV19Transform10hash_valueEv,
                          __ZNK9drawingV19Transform7writeToERN2PB6WriterE, __ZNK9drawingV19TransformeqERKS0_, __ZTI15PKInputSmoother,
                          __ZTI20PKRulerExtremaFilter, __ZTI22PKInputProviderInitial, __ZTIN10ClipperLib11ClipperBaseE,
                          __ZTIN10ClipperLib7ClipperE, __ZTIN14legacy_drawing10ParametersE, __ZTIN14legacy_drawing15VectorTimestampE,
                          __ZTIN14legacy_drawing20VectorTimestampClockE, __ZTIN14legacy_drawing32VectorTimestampClockReplicaClockE,
                          __ZTIN14legacy_drawing5ColorE, __ZTIN14legacy_drawing5PointE, __ZTIN14legacy_drawing7CommandE,
                          __ZTIN14legacy_drawing7DrawingE, __ZTIN14legacy_drawing9CommandIDE, __ZTIN14legacy_drawing9RectangleE,
                          __ZTIN18versioned_document7VersionE, __ZTIN18versioned_document8DocumentE, __ZTIN7drawing10StrokeDataE,
                          __ZTIN7drawing11StrokeDeltaE, __ZTIN7drawing3InkE, __ZTIN7drawing5ColorE, __ZTIN7drawing5PointE,
                          __ZTIN7drawing6StrokeE, __ZTIN7drawing7DrawingE, __ZTIN7drawing8StrokeIDE, __ZTIN7drawing9RectangleE,
                          __ZTIN7drawing9TransformE, __ZTIN9drawingV13InkE, __ZTIN9drawingV15ColorE, __ZTIN9drawingV15PointE,
                          __ZTIN9drawingV16StrokeE, __ZTIN9drawingV17DrawingE, __ZTIN9drawingV18StrokeIDE, __ZTIN9drawingV19RectangleE,
                          __ZTIN9drawingV19TransformE, __ZTS15PKInputSmoother, __ZTS20PKRulerExtremaFilter,
                          __ZTS22PKInputProviderInitial, __ZTSN10ClipperLib11ClipperBaseE, __ZTSN10ClipperLib7ClipperE,
                          __ZTSN14legacy_drawing10ParametersE, __ZTSN14legacy_drawing15VectorTimestampE,
                          __ZTSN14legacy_drawing20VectorTimestampClockE, __ZTSN14legacy_drawing32VectorTimestampClockReplicaClockE,
                          __ZTSN14legacy_drawing5ColorE, __ZTSN14legacy_drawing5PointE, __ZTSN14legacy_drawing7CommandE,
                          __ZTSN14legacy_drawing7DrawingE, __ZTSN14legacy_drawing9CommandIDE, __ZTSN14legacy_drawing9RectangleE,
                          __ZTSN18versioned_document7VersionE, __ZTSN18versioned_document8DocumentE, __ZTSN7drawing10StrokeDataE,
                          __ZTSN7drawing11StrokeDeltaE, __ZTSN7drawing3InkE, __ZTSN7drawing5ColorE, __ZTSN7drawing5PointE,
                          __ZTSN7drawing6StrokeE, __ZTSN7drawing7DrawingE, __ZTSN7drawing8StrokeIDE, __ZTSN7drawing9RectangleE,
                          __ZTSN7drawing9TransformE, __ZTSN9drawingV13InkE, __ZTSN9drawingV15ColorE, __ZTSN9drawingV15PointE,
                          __ZTSN9drawingV16StrokeE, __ZTSN9drawingV17DrawingE, __ZTSN9drawingV18StrokeIDE, __ZTSN9drawingV19RectangleE,
                          __ZTSN9drawingV19TransformE, __ZTTN10ClipperLib7ClipperE, __ZTV15PKInputSmoother, __ZTV20PKRulerExtremaFilter,
                          __ZTV22PKInputProviderInitial, __ZTVN10ClipperLib11ClipperBaseE, __ZTVN10ClipperLib7ClipperE,
                          __ZTVN14legacy_drawing10ParametersE, __ZTVN14legacy_drawing15VectorTimestampE,
                          __ZTVN14legacy_drawing20VectorTimestampClockE, __ZTVN14legacy_drawing32VectorTimestampClockReplicaClockE,
                          __ZTVN14legacy_drawing5ColorE, __ZTVN14legacy_drawing5PointE, __ZTVN14legacy_drawing7CommandE,
                          __ZTVN14legacy_drawing7DrawingE, __ZTVN14legacy_drawing9CommandIDE, __ZTVN14legacy_drawing9RectangleE,
                          __ZTVN18versioned_document7VersionE, __ZTVN18versioned_document8DocumentE, __ZTVN7drawing10StrokeDataE,
                          __ZTVN7drawing11StrokeDeltaE, __ZTVN7drawing3InkE, __ZTVN7drawing5ColorE, __ZTVN7drawing5PointE,
                          __ZTVN7drawing6StrokeE, __ZTVN7drawing7DrawingE, __ZTVN7drawing8StrokeIDE, __ZTVN7drawing9RectangleE,
                          __ZTVN7drawing9TransformE, __ZTVN9drawingV13InkE, __ZTVN9drawingV15ColorE, __ZTVN9drawingV15PointE,
                          __ZTVN9drawingV16StrokeE, __ZTVN9drawingV17DrawingE, __ZTVN9drawingV18StrokeIDE, __ZTVN9drawingV19RectangleE,
                          __ZTVN9drawingV19TransformE, ___PKAccessibilityStringForVariables,
                          ___PKAccessibilityStringForVariablesSentinel, __fuzzOneInput, _approximateSplineLength, _b, _b2, _b3,
                          _createDiffImageIfImageComparisonFails, _kPKInternalSettingsAPTMinimumMovementDistanceFinger,
                          _kPKInternalSettingsAPTMinimumMovementDistancePencil,
                          _kPKInternalSettingsAPTMinimumMovementDistanceTimeout,
                          _kPKInternalSettingsDrawingTouchPredictionPointsOverride, _kPKInternalSettingsSlowDebugRendering,
                          _kUTTypeAppleDrawing, _kUTTypeAppleStrokeSelection, _ksPKColorPanelColorChangedBeforeChosen,
                          _ksPKColorPanelInvoked, _ksPKColorPanelInvokedTapAndHold, _ksPKColorPanelInvokedTapTap,
                          _ksPKDidCollaborateWhileDrawing, _ksPKInkPickerDismissedColorPopoverNoOp,
                          _ksPKInkPickerDismissedPopoverNoOp, _ksPKInkPickerEraserNoOp, _ksPKInkPickerPencilDoubleTap,
                          _ksPKInkPickerSwipeLatency, _ksPKInkPickerTapLatency, _ksPKSelectionDrag, _ksPKSelectionDragAndDrop,
                          _ksPKStrokeInputTypeDistribution, _ksPKStrokeMarkerOpacityDistribution,
                          _ksPKStrokeMarkerThicknessDistribution, _ksPKStrokeMaxLatency120Hz, _ksPKStrokeMaxLatency60Hz,
                          _ksPKStrokeMeanLatency120Hz, _ksPKStrokeMeanLatency60Hz, _ksPKStrokePenOpacityDistribution,
                          _ksPKStrokePenThicknessDistribution, _ksPKStrokePencilOpacityDistribution,
                          _ksPKStrokePencilThicknessDistribution, _ksPKStrokePercentageOverLatencyThreshold120Hz,
                          _ksPKStrokePercentageOverLatencyThreshold60Hz, _ksPKStrokeToolDistribution ]
    objc-classes:       [ _PKAccessibility, _PKAccessoryView, _PKAttachmentView, _PKCanvasAttachmentView, _PKCanvasView, _PKColorMatrixView,
                          _PKColorMatrixViewPoint, _PKColorPicker, _PKColorPickerCrosshairView, _PKController, _PKDispatchAfterBlocks,
                          _PKDispatchAfterHandler, _PKDragIndicatorView, _PKDrawing, _PKDrawingGestureRecognizer,
                          _PKDrawingPowerSavingController, _PKDrawingVersionedDocument, _PKEraserTool, _PKFadeOutStrokeAnimation,
                          _PKFatStroke, _PKFreeTransformGestureRecognizer, _PKHandwritingDebugUtility, _PKHandwritingFeedbackActivity,
                          _PKImageCompare, _PKImageRenderer, _PKIndexableContent, _PKInk, _PKInkAttributesPicker, _PKInkBehavior,
                          _PKInkColorButton, _PKInkFeatheringDescriptor, _PKInkFunction, _PKInkKey, _PKInkManager, _PKInkModifier,
                          _PKInkParser, _PKInkParticleDescriptor, _PKInkProperties, _PKInkRenderingDescriptor, _PKInkSmoothingDescriptor,
                          _PKInkToolMinimizedImageFactory, _PKInkingTool, _PKInlineColorPicker, _PKInlineInkPicker,
                          _PKInlineInkPickerItem, _PKLRUCache, _PKLRUCacheItem, _PKLassoTool, _PKLegacyDrawingRegressionTester,
                          _PKLinedPaper, _PKMetalBuffer, _PKMetalFramebuffer, _PKMetalLiveStrokePaintRenderCache,
                          _PKMetalLiveStrokePaintRenderCacheBuffer, _PKMetalPaintRenderCache, _PKMetalPaintRenderCacheBuffer,
                          _PKMetalParticleRenderCache, _PKMetalParticleRenderCacheBuffer, _PKMetalRenderState, _PKMetalRenderer,
                          _PKMetalRendererController, _PKMetalResourceHandler, _PKMetalResourceHandlerBuffer, _PKMetalShader,
                          _PKMetalStrokeRenderCache, _PKMetalStrokeRenderCacheBuffer, _PKMetalUtility, _PKMetalView,
                          _PKModifyStrokeInkCommand, _PKModifyStrokesCommand, _PKMutableStroke, _PKPaintAreaView, _PKPaintAreaViewSurface,
                          _PKPaletteAdditionalOptionsView, _PKPaletteAutoMinimizeOptionCell, _PKPaletteButton,
                          _PKPaletteColorPickerView, _PKPaletteColorSwatch, _PKPaletteContainerView, _PKPaletteContentView,
                          _PKPaletteErasingAttributesView, _PKPaletteErasingAttributesViewController, _PKPaletteErasingToolView,
                          _PKPaletteHostView, _PKPaletteInkingToolView, _PKPaletteMoreOptionsViewController, _PKPaletteMulticolorSwatch,
                          _PKPaletteOptionCell, _PKPalettePencilInteractionFeedbackHostView, _PKPalettePencilInteractionFeedbackView,
                          _PKPaletteSelectingToolView, _PKPaletteShape, _PKPaletteShapeCell, _PKPaletteShapesView,
                          _PKPaletteShapesViewController, _PKPaletteTextOptionsView, _PKPaletteTextOptionsViewController,
                          _PKPaletteToolPickerAndColorPickerView, _PKPaletteToolPickerArrowIndicatorView,
                          _PKPaletteToolPickerContainerView, _PKPaletteToolPickerOverlayView, _PKPaletteToolPickerView,
                          _PKPaletteToolPreview, _PKPaletteToolView, _PKPaletteTransition, _PKPaletteUndoRedoView, _PKPaletteView,
                          _PKPaletteViewInteraction, _PKPathUtility, _PKRecognitionDataCollectionViewController,
                          _PKRecognitionDrawingPreviewViewController, _PKRecognitionOverlayView, _PKRendererTile,
                          _PKRendererTileController, _PKRendererTileProperties, _PKRendererVSyncController, _PKReplicaEntry,
                          _PKReplicaManager, _PKRulerController, _PKRulerGestureRecognizer, _PKRulerLayer, _PKRulerView, _PKSearchQueryItem,
                          _PKSelectDrawingGestureRecognizer, _PKSelectionController, _PKSelectionView, _PKSliceStrokesCommand,
                          _PKSpaceInsertionController, _PKSpaceInsertionView, _PKStatisticsManager, _PKStroke, _PKStrokeDelta,
                          _PKStrokeGenerator, _PKStrokeProvider, _PKStrokeProviderSlice, _PKStrokeProviderSliceIdentifier,
                          _PKStrokeSelection, _PKSwatchColor, _PKTextAttachmentDrawingResizeView, _PKTextAttachmentDrawingView,
                          _PKTextAttachmentDrawingViewProvider, _PKTextAttachmentDrawingViewTouchRecognizer, _PKTiledCanvasView,
                          _PKTiledCanvasViewDisplayLinkDelegate, _PKTiledTextView, _PKTiledView, _PKTitleQuery, _PKTitleQueryItem, _PKTool,
                          _PKToolPicker, _PKTransformStrokesCommand, _PKUndoCommand, _PKVectorMultiTimestamp, _PKVectorTimestamp,
                          _PKVectorTimestampElement, _PKVersionedDocument, _PKVisualizationManager, _PencilKit_Localization,
                          _UITextViewDrawingInfo, __PKAllowDrawingWhilePresentingPopoverView, __PKCheckerGridView, __PKColorAlphaSlider,
                          __PKColorPickerCrosshairCornerMaskView, __PKColorPickerSimpleCrosshairView, __PKColorPickerView,
                          __PKDebugToolViewController, __PKEmbossedColorPickerButton, __PKEmbossedInkColorButton,
                          __PKEmbossedInkToolButton, __PKFlatColorPickerButton, __PKFlatInkColorButton, __PKFlatInkToolButton,
                          __PKHueSpectrumView, __PKInkAttributesOpacityLabel, __PKInkAttributesPickerView, __PKInkColorButton,
                          __PKInkThicknessButton, __PKInkThicknessPicker, __PKInkToolOpacityLabel, __PKInlineDrawingScrollView,
                          __PKSliderKnobView, __PKSpringLoadingGestureRecognizer, __PKStrokeClipPlane, __PKStrokeData, __PKToolIndicator,
                          __UITextAttachmentDrawingView ]
    objc-ivars:         [ _PKAccessoryView._dragIndicatorView, _PKAccessoryView._edgeLocation, _PKAttachmentView._additionalStrokes,
                          _PKAttachmentView._contentHidden, _PKAttachmentView._drawing, _PKAttachmentView._offscreenTiles,
                          _PKAttachmentView._tileContainerView, _PKAttachmentView._tiles,
                          _PKCanvasAttachmentView.__wantsFullyRenderedNotification, _PKCanvasAttachmentView._canvasView,
                          _PKCanvasAttachmentView._drawingWidth, _PKCanvasAttachmentView._fullyRenderedCompletionBlocks,
                          _PKCanvasView._canvasViewFlags, _PKCanvasView._contentView, _PKCanvasView._disableWideGamut,
                          _PKCanvasView._drawingTransform, _PKCanvasView._fixedPixelSizeScrollView,
                          _PKCanvasView._fixedPixelSizeScrollViewWrapper, _PKCanvasView._pageView,
                          _PKCanvasView._rulerHostingDelegate, _PKCanvasView._tiledView, _PKColorMatrixView._colorButtons,
                          _PKColorMatrixView._colorMatrix, _PKColorMatrixView._colorPickerDelegate,
                          _PKColorMatrixView._colorUserInterfaceStyle, _PKColorMatrixView._darkColorMatrix,
                          _PKColorMatrixView.selectedColor, _PKColorMatrixViewPoint._col, _PKColorMatrixViewPoint._row,
                          _PKColorPicker._colorPickerView, _PKColorPicker._delegate, _PKColorPickerCrosshairView._baseMaskView,
                          _PKColorPickerCrosshairView._baseView, _PKColorPickerCrosshairView._cornerEdgeMaskView,
                          _PKColorPickerCrosshairView._cornerEdgeView, _PKColorPickerCrosshairView._cornerPosition,
                          _PKColorPickerCrosshairView._delegate, _PKController._backgroundQueue, _PKController._delegate,
                          _PKController._drawing, _PKController._interactQueue, _PKController._interactSemaphore,
                          _PKController._invertColors, _PKController._isMetal, _PKController._liveInteraction,
                          _PKController._mutableRenderedStrokes, _PKController._previewQueue, _PKController._previewsSuspended,
                          _PKController._renderedStrokes, _PKController._rendererController, _PKController._timeToRender,
                          _PKController._totalStrokes, _PKController._totalTiles, _PKDispatchAfterBlocks._identifier,
                          _PKDispatchAfterHandler._identifierBlockMap, _PKDragIndicatorView._edgeLocation, _PKDrawing.__bounds,
                          _PKDrawing.__canvasBounds, _PKDrawing._allStrokes, _PKDrawing._boundsVersion,
                          _PKDrawing._forcedRecognitionLocales, _PKDrawing._ongoingQueries, _PKDrawing._recognitionEnabled,
                          _PKDrawing._recognitionSession, _PKDrawing._replicaUUID, _PKDrawing._unknownFields, _PKDrawing._uuid,
                          _PKDrawing._version, _PKDrawing._visibleStrokes, _PKDrawing._visualizationManager,
                          _PKDrawingGestureRecognizer._drawTouchStartPoint, _PKDrawingGestureRecognizer._drawingTargetIsDrawing,
                          _PKDrawingGestureRecognizer._drawingTouch, _PKDrawingGestureRecognizer._gestureDetected,
                          _PKDrawingGestureRecognizer._ignoreFingerTouchesUntilReset, _PKDrawingGestureRecognizer._squaredThreshold,
                          _PKDrawingGestureRecognizer._thresholdDistance, _PKDrawingGestureRecognizer.drawingTarget,
                          _PKDrawingPowerSavingController._accumulatedMovement, _PKDrawingPowerSavingController._currentMovement,
                          _PKDrawingPowerSavingController._isDrawingWithMarkerOrEraser,
                          _PKDrawingPowerSavingController._isDrawingWithPencil,
                          _PKDrawingPowerSavingController._minimumMovementDistanceFinger,
                          _PKDrawingPowerSavingController._minimumMovementDistancePencil,
                          _PKDrawingPowerSavingController._minimumMovementDistanceTimeout,
                          _PKDrawingPowerSavingController._movementDistanceHistoryBuffer,
                          _PKDrawingPowerSavingController._previousDrawingLocation,
                          _PKDrawingPowerSavingController._previousRenderTimestamp, _PKDrawingPowerSavingController._valid,
                          _PKDrawingVersionedDocument._drawing, _PKDrawingVersionedDocument._loadNonInkingStrokes,
                          _PKFadeOutStrokeAnimation._duration, _PKFadeOutStrokeAnimation._startColor,
                          _PKFadeOutStrokeAnimation._startTime, _PKFadeOutStrokeAnimation._stroke, _PKFatStroke._centerlineSlices,
                          _PKFatStroke._maskPaths, _PKFreeTransformGestureRecognizer._accumulatedTransform,
                          _PKFreeTransformGestureRecognizer._actualTouchStartLocations,
                          _PKFreeTransformGestureRecognizer._allowSingleTouchDrag,
                          _PKFreeTransformGestureRecognizer._allowedPanEdges, _PKFreeTransformGestureRecognizer._axisAligned,
                          _PKFreeTransformGestureRecognizer._canBegin, _PKFreeTransformGestureRecognizer._cancelThreshold,
                          _PKFreeTransformGestureRecognizer._deltaScale, _PKFreeTransformGestureRecognizer._isPanning,
                          _PKFreeTransformGestureRecognizer._isScaling, _PKFreeTransformGestureRecognizer._maxScale,
                          _PKFreeTransformGestureRecognizer._minScale, _PKFreeTransformGestureRecognizer._previousScale,
                          _PKFreeTransformGestureRecognizer._scaleDamping, _PKFreeTransformGestureRecognizer._scaleThreshold,
                          _PKFreeTransformGestureRecognizer._startThreshold, _PKFreeTransformGestureRecognizer._touchStartLocations,
                          _PKFreeTransformGestureRecognizer._touches, _PKHandwritingFeedbackActivity._block,
                          _PKHandwritingFeedbackActivity._image, _PKHandwritingFeedbackActivity._title, _PKImageRenderer._cancelCount,
                          _PKImageRenderer._rendererController, _PKImageRenderer._scale, _PKImageRenderer._size,
                          _PKImageRenderer._synchronous, _PKIndexableContent._chIndexableContent, _PKInk._behavior, _PKInk._color,
                          _PKInk._identifier, _PKInk._type, _PKInk._unknownFields, _PKInk._variant, _PKInk._version, _PKInk._weight,
                          _PKInkAttributesPicker._delegate, _PKInkAttributesPicker._pickerView, _PKInkBehavior._aspectRatioOutput,
                          _PKInkBehavior._baseAlpha, _PKInkBehavior._blendAlpha, _PKInkBehavior._brushOpacityOutput,
                          _PKInkBehavior._cachedAspectRatioFunctions, _PKInkBehavior._cachedEdgeWidthFunctions,
                          _PKInkBehavior._cachedOpacityFunctions, _PKInkBehavior._cachedRadiusFunctions,
                          _PKInkBehavior._edgeWidthOutput, _PKInkBehavior._featheringDescriptor, _PKInkBehavior._opacityOutput,
                          _PKInkBehavior._radiusOutput, _PKInkBehavior._renderingDescriptor, _PKInkBehavior._rulerOffsetConstant,
                          _PKInkBehavior._rulerOffsetScale, _PKInkBehavior._showBrushIndicator, _PKInkBehavior._smoothingDescriptor,
                          _PKInkBehavior._targetMultiple, _PKInkBehavior._timeDependent, _PKInkBehavior._usesAzimuthOrAltitude,
                          _PKInkBehavior._variableSnappedWidth, _PKInkBehavior._variant, _PKInkBehavior._weightFunction,
                          _PKInkFeatheringDescriptor._endCapFade, _PKInkFeatheringDescriptor._endCapTime,
                          _PKInkFeatheringDescriptor._startCapFade, _PKInkFeatheringDescriptor._startCapTime,
                          _PKInkFunction._controlPoints, _PKInkFunction._deviceMask, _PKInkFunction._functionType,
                          _PKInkFunction._inkInput, _PKInkFunction._inkProperty, _PKInkFunction._inputMask, _PKInkFunction._inputPoints,
                          _PKInkFunction._maxOutputPoints, _PKInkFunction._minOutputPoints, _PKInkFunction._outputPoints,
                          _PKInkKey._identifier, _PKInkKey._variant, _PKInkKey._version, _PKInkManager._inks,
                          _PKInkParticleDescriptor._adjustEndCapParticleAlpha, _PKInkParticleDescriptor._dynamicStep,
                          _PKInkParticleDescriptor._particleCount, _PKInkParticleDescriptor._particleRotation,
                          _PKInkParticleDescriptor._particleSize, _PKInkParticleDescriptor._particleSpacing,
                          _PKInkParticleDescriptor._particleSpacingFunction, _PKInkParticleDescriptor._textureImage,
                          _PKInkParticleDescriptor._textureName, _PKInkRenderingDescriptor._blendMode,
                          _PKInkRenderingDescriptor._identifier, _PKInkRenderingDescriptor._particleDescriptor,
                          _PKInkRenderingDescriptor._type, _PKInkRenderingDescriptor._version,
                          _PKInkSmoothingDescriptor._stylusSmoothing, _PKInkSmoothingDescriptor._touchSmoothing,
                          _PKInkSmoothingDescriptor._velocitySmoothing, _PKInlineColorPicker.__allowDrawingWithPopoverDelegate,
                          _PKInlineColorPicker.__contentsHiddenDelegate, _PKInlineColorPicker.__pickerColor,
                          _PKInlineColorPicker._aggd_colorsChangedCount, _PKInlineColorPicker._aggd_initialColorOnPopoverOpen,
                          _PKInlineColorPicker._buttonItems, _PKInlineColorPicker._colorSet, _PKInlineColorPicker._colors,
                          _PKInlineColorPicker._delegate, _PKInlineColorPicker._didSelectColorUsingSpringLoadedSelection,
                          _PKInlineColorPicker._isUsedOnDarkBackground, _PKInlineColorPicker._leftOverflowView,
                          _PKInlineColorPicker._presentedColorPicker, _PKInlineColorPicker._rightOverflowView,
                          _PKInlineColorPicker._scrollView, _PKInlineColorPicker._selectedColorAlpha,
                          _PKInlineColorPicker._selectedColorBeforeSpringLoadedSelection, _PKInlineColorPicker._selectedColorIndex,
                          _PKInlineColorPicker._selectionState, _PKInlineColorPicker._serialViewControllerTransitionDelegate,
                          _PKInlineColorPicker._shouldEmboss, _PKInlineColorPicker._sizeState,
                          _PKInlineInkPicker.__allowDrawingWhilePresentingPopoverView, _PKInlineInkPicker.__inkForIdentifierDict,
                          _PKInlineInkPicker._aggd_initialInkOnPopoverOpen, _PKInlineInkPicker._allowedTools,
                          _PKInlineInkPicker._attributeSet, _PKInlineInkPicker._backgroundView,
                          _PKInlineInkPicker._backgroundViewLayoutGuide, _PKInlineInkPicker._clippingView,
                          _PKInlineInkPicker._colorPicker, _PKInlineInkPicker._contentsHidden,
                          _PKInlineInkPicker._contentsHiddenToolIndicator, _PKInlineInkPicker._delegate,
                          _PKInlineInkPicker._forceCompactLayout, _PKInlineInkPicker._inkIdentifiers,
                          _PKInlineInkPicker._isUsedOnDarkBackground, _PKInlineInkPicker._pencilGestureSupportEnabled,
                          _PKInlineInkPicker._pencilInteraction, _PKInlineInkPicker._presentedInkAttributesPicker,
                          _PKInlineInkPicker._previousDrawingToolIndex, _PKInlineInkPicker._previousToolIndex,
                          _PKInlineInkPicker._rulerEnabled, _PKInlineInkPicker._selectedInkIndex, _PKInlineInkPicker._selectionState,
                          _PKInlineInkPicker._separatorView, _PKInlineInkPicker._serialViewControllerTransitionQueue,
                          _PKInlineInkPicker._serialViewControllerTransitionSemaphore, _PKInlineInkPicker._shouldAnimateRuler,
                          _PKInlineInkPicker._shouldEmboss, _PKInlineInkPicker._sizeState, _PKInlineInkPicker._toolButtonItems,
                          _PKInlineInkPickerItem._button, _PKInlineInkPickerItem._yOffset, _PKLRUCache._currentCost,
                          _PKLRUCache._firstItem, _PKLRUCache._freeItemCount, _PKLRUCache._freeItems, _PKLRUCache._itemTable,
                          _PKLRUCache._lastItem, _PKLRUCache._totalCostLimit, _PKLRUCacheItem._cost, _PKLRUCacheItem._key,
                          _PKLRUCacheItem._next, _PKLRUCacheItem._object, _PKLRUCacheItem._prev, _PKLinedPaper._horizontalInset,
                          _PKLinedPaper._lineSpacing, _PKMetalBuffer._isPurged, _PKMetalBuffer._lockCount, _PKMetalBuffer._metalBuffer,
                          _PKMetalFramebuffer._backedByIOSurface, _PKMetalFramebuffer._colorTexture, _PKMetalFramebuffer._device,
                          _PKMetalFramebuffer._ioSurface, _PKMetalFramebuffer._isPurgeable, _PKMetalFramebuffer._memoryless,
                          _PKMetalFramebuffer._pixelFormat, _PKMetalFramebuffer._sampleCount, _PKMetalFramebuffer._size,
                          _PKMetalLiveStrokePaintRenderCache._buffers,
                          _PKMetalLiveStrokePaintRenderCache._liveStrokeDestinationFrame,
                          _PKMetalLiveStrokePaintRenderCache._liveStrokeDestinationTexture,
                          _PKMetalLiveStrokePaintRenderCache._totalCost,
                          _PKMetalLiveStrokePaintRenderCacheBuffer._liveStrokePointBuffer,
                          _PKMetalLiveStrokePaintRenderCacheBuffer._liveStrokePointBufferOffset,
                          _PKMetalLiveStrokePaintRenderCacheBuffer._numPoints,
                          _PKMetalLiveStrokePaintRenderCacheBuffer._numVertices,
                          _PKMetalLiveStrokePaintRenderCacheBuffer._strokePointBuffer,
                          _PKMetalLiveStrokePaintRenderCacheBuffer._strokePointBufferOffset, _PKMetalPaintRenderCache._buffers,
                          _PKMetalPaintRenderCache._totalCost, _PKMetalPaintRenderCacheBuffer._numPoints,
                          _PKMetalPaintRenderCacheBuffer._numVertices, _PKMetalPaintRenderCacheBuffer._pkStrokePointBuffer,
                          _PKMetalPaintRenderCacheBuffer._pkUniformsBuffer, _PKMetalPaintRenderCacheBuffer._strokePointBufferOffset,
                          _PKMetalPaintRenderCacheBuffer._uniformsBufferOffset, _PKMetalParticleRenderCache._buffers,
                          _PKMetalParticleRenderCache._inkVersion, _PKMetalParticleRenderCache._totalCost,
                          _PKMetalParticleRenderCacheBuffer._numParticles, _PKMetalParticleRenderCacheBuffer._numPoints,
                          _PKMetalParticleRenderCacheBuffer._numVertices, _PKMetalParticleRenderCacheBuffer._pkStrokePointBuffer,
                          _PKMetalParticleRenderCacheBuffer._pkUniformsBuffer,
                          _PKMetalParticleRenderCacheBuffer._strokePointBufferOffset,
                          _PKMetalParticleRenderCacheBuffer._uniformsBufferOffset, _PKMetalRenderState._commandBuffer,
                          _PKMetalRenderState._commandBuffers, _PKMetalRenderState._commandQueue,
                          _PKMetalRenderState._computeCommandBuffer, _PKMetalRenderState._computeEncoder,
                          _PKMetalRenderState._destinationColorAttachmentIndex, _PKMetalRenderState._destinationTexture,
                          _PKMetalRenderState._liveRendering, _PKMetalRenderState._maskCommandBuffer,
                          _PKMetalRenderState._maskRenderEncoder, _PKMetalRenderState._msaaRendering,
                          _PKMetalRenderState._needRenderMask, _PKMetalRenderState._renderEncoder, _PKMetalRenderState._renderOnPaper,
                          _PKMetalRenderState._scissorRect, _PKMetalRenderState._vertexEncodeCount,
                          _PKMetalRenderState._waitUntilCompletedOnCommit, _PKMetalRenderer._actualSize,
                          _PKMetalRenderer._alwaysMemorylessPaintFramebuffer, _PKMetalRenderer._animatingStrokes,
                          _PKMetalRenderer._backboardPaperMultiply, _PKMetalRenderer._backgroundColor, _PKMetalRenderer._commandQueue,
                          _PKMetalRenderer._coreImageContext, _PKMetalRenderer._currentCacheSize,
                          _PKMetalRenderer._currentRenderState, _PKMetalRenderer._device, _PKMetalRenderer._drawingPixelSize,
                          _PKMetalRenderer._dummyColorFramebuffer, _PKMetalRenderer._dummyPaintFramebuffer,
                          _PKMetalRenderer._eraserIndicatorAlpha, _PKMetalRenderer._fromStrokeSpaceScale,
                          _PKMetalRenderer._inputScale, _PKMetalRenderer._invertColors, _PKMetalRenderer._lastPointForEraser,
                          _PKMetalRenderer._lastPointForEraserIsValid, _PKMetalRenderer._linedPaper,
                          _PKMetalRenderer._liveRenderingOverrideColor, _PKMetalRenderer._liveStrokeDuration,
                          _PKMetalRenderer._liveStrokeElapsedTime, _PKMetalRenderer._liveStrokeMode,
                          _PKMetalRenderer._liveStrokeStrokePointBuffer, _PKMetalRenderer._maskMSAAFramebuffer,
                          _PKMetalRenderer._needRestartWorkaroundForOldIntelDrivers,
                          _PKMetalRenderer._oneRenderPassForLiveRendering, _PKMetalRenderer._originalBackFramebuffer,
                          _PKMetalRenderer._paintAndParticlePixelFormat, _PKMetalRenderer._paintFramebuffer,
                          _PKMetalRenderer._paintFramebufferAccumulator, _PKMetalRenderer._paintFramebufferDirtyRect,
                          _PKMetalRenderer._paintShader, _PKMetalRenderer._paintStrokePointBuffer, _PKMetalRenderer._paperTexture,
                          _PKMetalRenderer._paperTextureSize, _PKMetalRenderer._paperTransform, _PKMetalRenderer._particleIndexBuffer,
                          _PKMetalRenderer._particleShader, _PKMetalRenderer._particleShaderWithAspectRatioSupport,
                          _PKMetalRenderer._particleStrokePointBuffer, _PKMetalRenderer._pixelFormat,
                          _PKMetalRenderer._randomNumberBuffer, _PKMetalRenderer._renderMaskMSAASampleCount,
                          _PKMetalRenderer._resourceHandler, _PKMetalRenderer._shouldClearOriginalBackFramebuffer,
                          _PKMetalRenderer._solidColorBackboard, _PKMetalRenderer._strokeBuffer, _PKMetalRenderer._strokeBufferCount,
                          _PKMetalRenderer._strokeTransform, _PKMetalRenderer._useComputeRenderCaches, _PKMetalRenderer._viewScissor,
                          _PKMetalRendererController._actualSize, _PKMetalRendererController._canBeginRenderSemaphore,
                          _PKMetalRendererController._cancelAllRendering,
                          _PKMetalRendererController._cancelLongRunningRenderingCount, _PKMetalRendererController._currentDrawable,
                          _PKMetalRendererController._currentTextureTarget, _PKMetalRendererController._delegate,
                          _PKMetalRendererController._inputController, _PKMetalRendererController._inputScale,
                          _PKMetalRendererController._isTorndown, _PKMetalRendererController._lastFrameDuration,
                          _PKMetalRendererController._lastPresentationTime, _PKMetalRendererController._linedPaper,
                          _PKMetalRendererController._liveStrokeDuration, _PKMetalRendererController._liveStrokeElapsedTime,
                          _PKMetalRendererController._liveStrokeMode, _PKMetalRendererController._liveStrokeStrokes,
                          _PKMetalRendererController._paperTextureImage, _PKMetalRendererController._paperTransform,
                          _PKMetalRendererController._pixelSize, _PKMetalRendererController._postPresentCallbacks,
                          _PKMetalRendererController._presentationCount, _PKMetalRendererController._presentationDelay,
                          _PKMetalRendererController._presentationDelayGrowth, _PKMetalRendererController._presentationLayer,
                          _PKMetalRendererController._presentationMaxDelay, _PKMetalRendererController._queuedRenders,
                          _PKMetalRendererController._readyToBeginRender, _PKMetalRendererController._renderQueue,
                          _PKMetalRendererController._renderTransform, _PKMetalRendererController._renderer,
                          _PKMetalRendererController._strokeLatencyStat, _PKMetalRendererController._strokeTransform,
                          _PKMetalRendererController._vSyncTimeoutBlock, _PKMetalRendererController._viewScissor,
                          _PKMetalResourceHandler._accessQueue, _PKMetalResourceHandler._blitIntoPaintShader,
                          _PKMetalResourceHandler._blitShader, _PKMetalResourceHandler._cachedQuadTexCoordBuffer,
                          _PKMetalResourceHandler._cachedQuadVertexBuffer, _PKMetalResourceHandler._copyAccumulatorIntoPaintShader,
                          _PKMetalResourceHandler._defaultLibrary, _PKMetalResourceHandler._device,
                          _PKMetalResourceHandler._eraseOriginalBackShader, _PKMetalResourceHandler._erasePaintAccumulatorShader,
                          _PKMetalResourceHandler._erasePaintShader, _PKMetalResourceHandler._eraseShader,
                          _PKMetalResourceHandler._gpuResourceBuffer, _PKMetalResourceHandler._inkTextures,
                          _PKMetalResourceHandler._invertShader, _PKMetalResourceHandler._linesShader,
                          _PKMetalResourceHandler._paintAndParticlePixelFormat, _PKMetalResourceHandler._paintCircleShader,
                          _PKMetalResourceHandler._paintShader, _PKMetalResourceHandler._paintShaderForAccumulator,
                          _PKMetalResourceHandler._paintShaderKernelPipelineState,
                          _PKMetalResourceHandler._paintShaderKernelPipelineStateWithLiveStroke,
                          _PKMetalResourceHandler._paperShader, _PKMetalResourceHandler._paperTexture,
                          _PKMetalResourceHandler._paperTextureSize, _PKMetalResourceHandler._particleIndexBuffer,
                          _PKMetalResourceHandler._particleShader, _PKMetalResourceHandler._particleShaderForAccumulator,
                          _PKMetalResourceHandler._particleShaderForAccumulatorWithAspectRatioSupport,
                          _PKMetalResourceHandler._particleShaderKernelPipelineState,
                          _PKMetalResourceHandler._particleShaderKernelPipelineStateWithVariableSpacing,
                          _PKMetalResourceHandler._particleShaderWithAspectRatioSupport, _PKMetalResourceHandler._pipelineLibrary,
                          _PKMetalResourceHandler._pixelFormat, _PKMetalResourceHandler._purgeableResourceBuffer,
                          _PKMetalResourceHandler._randomNumberBuffer, _PKMetalResourceHandler._resourceBuffer,
                          _PKMetalResourceHandler._sharedPipelineDescriptor, _PKMetalResourceHandler._signpost_id,
                          _PKMetalResourceHandler._singleAttachmentBlitShader,
                          _PKMetalResourceHandler._singleColorPipelineDescriptor,
                          _PKMetalResourceHandler._singlePaintPipelineDescriptor, _PKMetalResourceHandler._stencilPixelFormat,
                          _PKMetalResourceHandler._strokeRenderCache, _PKMetalResourceHandler._uberShaders,
                          _PKMetalResourceHandlerBuffer._buffer, _PKMetalResourceHandlerBuffer._bufferSize,
                          _PKMetalResourceHandlerBuffer._currentOffset, _PKMetalResourceHandlerBuffer._device,
                          _PKMetalResourceHandlerBuffer._options, _PKMetalResourceHandlerBuffer._purgeable,
                          _PKMetalShader._addBlendModeShader, _PKMetalShader._blendMode, _PKMetalShader._colorAttachmentIndex,
                          _PKMetalShader._fragmentFunction, _PKMetalShader._invertBlendModeShader, _PKMetalShader._maxBlendModeShader,
                          _PKMetalShader._msaaPipelineState, _PKMetalShader._msaaPipelineStateSampleCount,
                          _PKMetalShader._msaaPipelineStateWithColorMaskNone,
                          _PKMetalShader._msaaPipelineStateWithColorMaskNoneSampleCount, _PKMetalShader._noBlendModeShader,
                          _PKMetalShader._numColorAttachments, _PKMetalShader._pipelineState,
                          _PKMetalShader._pipelineStateWithColorMaskNone, _PKMetalShader._sharedPipelineDescriptor,
                          _PKMetalShader._stencilPixelFormat, _PKMetalShader._subtractBlendModeShader, _PKMetalShader._vertexFunction,
                          _PKMetalStrokeRenderCache._buffers, _PKMetalStrokeRenderCache._totalCost,
                          _PKMetalStrokeRenderCacheBuffer._buffer, _PKMetalStrokeRenderCacheBuffer._numVertices,
                          _PKMetalStrokeRenderCacheBuffer._offset, _PKMetalView._doubleBuffered, _PKMetalView._fixedPixelSize,
                          _PKMetalView._isFixedPixelSize, _PKMetalView._isWideGamut, _PKModifyStrokeInkCommand._inks,
                          _PKModifyStrokeInkCommand._oldInks, _PKModifyStrokeInkCommand._strokes, _PKModifyStrokesCommand._hide,
                          _PKModifyStrokesCommand._strokes, _PKMutableStroke.__color, _PKPaintAreaView._currentPaintSurfaceObject,
                          _PKPaintAreaView._delegate, _PKPaintAreaView._drawingGestureRecognizer,
                          _PKPaintAreaView._fingerDrawingEnabled, _PKPaintAreaView._ink, _PKPaintAreaView._liveSurfaces,
                          _PKPaintAreaView._switchSurfacesDuringStrokes, _PKPaintAreaViewSurface._allowLiveInteraction,
                          _PKPaintAreaViewSurface._dispatchQueue, _PKPaintAreaViewSurface._drawingController,
                          _PKPaintAreaViewSurface._drawingSize, _PKPaintAreaViewSurface._drawingUUID,
                          _PKPaintAreaViewSurface._imageContext, _PKPaintAreaViewSurface._isDrawing,
                          _PKPaintAreaViewSurface._isErasingObjects, _PKPaintAreaViewSurface._isMipmapped,
                          _PKPaintAreaViewSurface._oldEraseLocation, _PKPaintAreaViewSurface._paintAreaView,
                          _PKPaintAreaViewSurface._pixelSize, _PKPaintAreaViewSurface._previousPoint,
                          _PKPaintAreaViewSurface._strokeIDsToErase, _PKPaintAreaViewSurface._strokeTransform,
                          _PKPaintAreaViewSurface._strokesToErase, _PKPaintAreaViewSurface._surface,
                          _PKPaintAreaViewSurface._textureScale, _PKPaintAreaViewSurface._textureSet,
                          _PKPaintAreaViewSurface._waitingForStrokeToEnd, _PKPaletteAdditionalOptionsView._autoHideOn,
                          _PKPaletteAdditionalOptionsView._delegate, _PKPaletteAdditionalOptionsView._edgeLocation,
                          _PKPaletteAdditionalOptionsView._ellipsisButton,
                          _PKPaletteAdditionalOptionsView._ellipsisButtonHeightConstraint,
                          _PKPaletteAdditionalOptionsView._ellipsisButtonWidthConstraint,
                          _PKPaletteAdditionalOptionsView._moreOptionsViewController, _PKPaletteAdditionalOptionsView._plusButton,
                          _PKPaletteAdditionalOptionsView._plusButtonHeightConstraint,
                          _PKPaletteAdditionalOptionsView._plusButtonWidthConstraint,
                          _PKPaletteAdditionalOptionsView._presentedPopoverViewController,
                          _PKPaletteAdditionalOptionsView._scalingFactor, _PKPaletteAdditionalOptionsView._stackView,
                          _PKPaletteAdditionalOptionsView._supportsAnnotationEditing,
                          _PKPaletteAutoMinimizeOptionCell._autoMinimizeSwitch, _PKPaletteButton._button,
                          _PKPaletteButton._buttonType, _PKPaletteColorPickerView._collectionView,
                          _PKPaletteColorPickerView._colorPickerMode, _PKPaletteColorPickerView._colorPickerPopover,
                          _PKPaletteColorPickerView._colorUserInterfaceStyle, _PKPaletteColorPickerView._delegate,
                          _PKPaletteColorPickerView._edgeLocation, _PKPaletteColorPickerView._longPressGestureRecognizer,
                          _PKPaletteColorPickerView._scalingFactor, _PKPaletteColorPickerView._swatchColors,
                          _PKPaletteColorPickerView._swatches, _PKPaletteColorSwatch._colorBackgroundView,
                          _PKPaletteColorSwatch._colorBulletView, _PKPaletteColorSwatch._colorUserInterfaceStyle,
                          _PKPaletteColorSwatch._selected, _PKPaletteColorSwatch._selectionRingMaskLayer,
                          _PKPaletteColorSwatch._showsSelectionHighlight, _PKPaletteColorSwatch._swatchColor,
                          _PKPaletteContainerView._accessoryView, _PKPaletteContainerView._accessoryViewBottomConstraint,
                          _PKPaletteContainerView._accessoryViewHeightConstraint,
                          _PKPaletteContainerView._accessoryViewLeftConstraint,
                          _PKPaletteContainerView._accessoryViewRightConstraint,
                          _PKPaletteContainerView._accessoryViewTopConstraint,
                          _PKPaletteContainerView._accessoryViewWidthConstraint, _PKPaletteContainerView._contentView,
                          _PKPaletteContainerView._contentViewBottomConstraint,
                          _PKPaletteContainerView._contentViewHeightConstraint, _PKPaletteContainerView._contentViewLeftConstraint,
                          _PKPaletteContainerView._contentViewRightConstraint, _PKPaletteContainerView._contentViewTopConstraint,
                          _PKPaletteContainerView._edgeLocation, _PKPaletteContainerView._scalingFactor,
                          _PKPaletteContentView._additionalOptionsView, _PKPaletteContentView._contextualEditingView,
                          _PKPaletteContentView._edgeLocation, _PKPaletteContentView._paletteViewState,
                          _PKPaletteContentView._scalingFactor, _PKPaletteContentView._stackView,
                          _PKPaletteContentView._stackViewBottomConstraint, _PKPaletteContentView._stackViewCenterXConstraint,
                          _PKPaletteContentView._stackViewCompactLeftConstraint,
                          _PKPaletteContentView._stackViewCompactRightConstraint, _PKPaletteContentView._stackViewLeftConstraint,
                          _PKPaletteContentView._stackViewRightConstraint, _PKPaletteContentView._stackViewTopConstraint,
                          _PKPaletteContentView._toolAndColorPickerContainerView,
                          _PKPaletteContentView._toolAndColorPickerContainerViewHeightConstraint,
                          _PKPaletteContentView._toolAndColorPickerContainerViewWidthConstraint,
                          _PKPaletteContentView._undoRedoView, _PKPaletteContentView._usingSmallestSupportedWidth,
                          _PKPaletteErasingAttributesView._segmentedControl, _PKPaletteErasingAttributesViewController._delegate,
                          _PKPaletteErasingToolView._attributeViewController, _PKPaletteErasingToolView._bitmapEraser,
                          _PKPaletteHostView._colorPickerPopover, _PKPaletteHostView._delegate,
                          _PKPaletteHostView._draggingInitialPaletteCenterInSelf,
                          _PKPaletteHostView._draggingPendingPaletteVisualState, _PKPaletteHostView._effectivePaletteVisible,
                          _PKPaletteHostView._hostingWindowScene, _PKPaletteHostView._lastNonCompactPalettePosition,
                          _PKPaletteHostView._paletteBottomConstraint, _PKPaletteHostView._paletteCenterXConstraint,
                          _PKPaletteHostView._paletteCenterYConstraint, _PKPaletteHostView._paletteDraggingBehavior,
                          _PKPaletteHostView._paletteHeightConstraint, _PKPaletteHostView._paletteLeftConstraint,
                          _PKPaletteHostView._palettePosition, _PKPaletteHostView._paletteRightConstraint,
                          _PKPaletteHostView._paletteSizeScaleFactor, _PKPaletteHostView._paletteTopConstraint,
                          _PKPaletteHostView._paletteTransition, _PKPaletteHostView._paletteView, _PKPaletteHostView._paletteVisible,
                          _PKPaletteHostView._paletteVisualState, _PKPaletteHostView._paletteWidthConstraint,
                          _PKPaletteHostView._panGestureRecognizer, _PKPaletteHostView._pencilInteractionFeedbackHostView,
                          _PKPaletteHostView._tapToExpandPaletteFromMinimizedGestureRecognizer,
                          _PKPaletteHostView._touchDownFeedbackGestureRecognizer, _PKPaletteHostView.paletteDragging,
                          _PKPaletteHostView.paletteMinimized, _PKPaletteInkingToolView._attributeViewController,
                          _PKPaletteInkingToolView._colorIndicatorContourImageLeft,
                          _PKPaletteInkingToolView._colorIndicatorContourImageRight,
                          _PKPaletteInkingToolView._colorIndicatorContourImageUp,
                          _PKPaletteInkingToolView._colorIndicatorContourImageView,
                          _PKPaletteInkingToolView._colorIndicatorImageLeft, _PKPaletteInkingToolView._colorIndicatorImageRight,
                          _PKPaletteInkingToolView._colorIndicatorImageUp, _PKPaletteInkingToolView._colorIndicatorImageView,
                          _PKPaletteInkingToolView._ink, _PKPaletteInkingToolView._opacityLabel,
                          _PKPaletteInkingToolView._opacityLabelBottomConstraint,
                          _PKPaletteInkingToolView._opacityLabelCenterXConstraint,
                          _PKPaletteInkingToolView._opacityLabelCenterYConstraint,
                          _PKPaletteInkingToolView._opacityLabelLeadingConstraint,
                          _PKPaletteInkingToolView._opacityLabelTrailingConstraint,
                          _PKPaletteInkingToolView._tipIndicatorContourImageView, _PKPaletteInkingToolView._tipIndicatorImageView,
                          _PKPaletteInkingToolView._toolTipContourImageLeft, _PKPaletteInkingToolView._toolTipContourImageRight,
                          _PKPaletteInkingToolView._toolTipContourImageUp, _PKPaletteInkingToolView._toolTipImageLeft,
                          _PKPaletteInkingToolView._toolTipImageRight, _PKPaletteInkingToolView._toolTipImageUp,
                          _PKPaletteMoreOptionsViewController._autoHideOn, _PKPaletteMoreOptionsViewController._autoMinimizeCell,
                          _PKPaletteMoreOptionsViewController._delegate,
                          _PKPaletteMoreOptionsViewController._externalTraitCollection,
                          _PKPaletteMoreOptionsViewController._stackView,
                          _PKPaletteMoreOptionsViewController._stackViewMinWidthConstraint,
                          _PKPaletteMoreOptionsViewController._stackViewPositioningConstraints, _PKPaletteOptionCell._textLabel,
                          _PKPalettePencilInteractionFeedbackHostView._delegate,
                          _PKPalettePencilInteractionFeedbackHostView._feedbackViewVisibilityAnimatableProperty,
                          _PKPalettePencilInteractionFeedbackHostView._layoutGuideCenterXConstraint,
                          _PKPalettePencilInteractionFeedbackHostView._layoutGuideCenterYConstraint,
                          _PKPalettePencilInteractionFeedbackHostView._layoutGuideHeightConstraint,
                          _PKPalettePencilInteractionFeedbackHostView._layoutGuideWidthConstraint,
                          _PKPalettePencilInteractionFeedbackHostView._pencilInteractionFeedbackView,
                          _PKPalettePencilInteractionFeedbackHostView._pencilInteractionFeedbackViewAutodismissTimer,
                          _PKPalettePencilInteractionFeedbackHostView._pencilInteractionFeedbackViewBottomConstraint,
                          _PKPalettePencilInteractionFeedbackHostView._pencilInteractionFeedbackViewCenterXConstraint,
                          _PKPalettePencilInteractionFeedbackHostView._pencilInteractionFeedbackViewCenterYConstraint,
                          _PKPalettePencilInteractionFeedbackHostView._pencilInteractionFeedbackViewLayoutGuide,
                          _PKPalettePencilInteractionFeedbackHostView._pencilInteractionFeedbackViewLeftConstraint,
                          _PKPalettePencilInteractionFeedbackHostView._pencilInteractionFeedbackViewRightConstraint,
                          _PKPalettePencilInteractionFeedbackHostView._pencilInteractionFeedbackViewTopConstraint,
                          _PKPalettePencilInteractionFeedbackHostView._pencilInteractionFeedbackViewVisible,
                          _PKPalettePencilInteractionFeedbackView._backgroundView,
                          _PKPalettePencilInteractionFeedbackView._clippingView,
                          _PKPalettePencilInteractionFeedbackView._toolPreview, _PKPaletteSelectingToolView._inkTool,
                          _PKPaletteShape._image, _PKPaletteShape._shapeType, _PKPaletteShapeCell._imageView,
                          _PKPaletteShapeCell._shape, _PKPaletteShapesView._collectionView, _PKPaletteShapesViewController._delegate,
                          _PKPaletteShapesViewController._shapes, _PKPaletteTextOptionsView._signatureButton,
                          _PKPaletteTextOptionsView._textButton, _PKPaletteTextOptionsViewController._delegate,
                          _PKPaletteToolPickerAndColorPickerView._colorPickerView,
                          _PKPaletteToolPickerAndColorPickerView._compactToolPickerContainerViewWidthConstraint,
                          _PKPaletteToolPickerAndColorPickerView._contextEditingMode,
                          _PKPaletteToolPickerAndColorPickerView._edgeLocation,
                          _PKPaletteToolPickerAndColorPickerView._paletteViewState,
                          _PKPaletteToolPickerAndColorPickerView._scalingFactor, _PKPaletteToolPickerAndColorPickerView._stackView,
                          _PKPaletteToolPickerAndColorPickerView._toolPickerContainerView,
                          _PKPaletteToolPickerAndColorPickerView._toolPickerContainerViewHeightConstraint,
                          _PKPaletteToolPickerAndColorPickerView._toolPickerContainerViewWidthConstraint,
                          _PKPaletteToolPickerContainerView._edgeLocation, _PKPaletteToolPickerContainerView._paletteViewState,
                          _PKPaletteToolPickerContainerView._scalingFactor, _PKPaletteToolPickerContainerView._toolPickerView,
                          _PKPaletteToolPickerContainerView._toolPickerViewBottomConstraint,
                          _PKPaletteToolPickerContainerView._toolPickerViewLeftConstraint,
                          _PKPaletteToolPickerContainerView._toolPickerViewRightConstraint,
                          _PKPaletteToolPickerContainerView._toolPickerViewTopConstraint,
                          _PKPaletteToolPickerOverlayView._firstArrowView, _PKPaletteToolPickerOverlayView._secondArrowView,
                          _PKPaletteToolPickerView._colorUserInterfaceStyle, _PKPaletteToolPickerView._delegate,
                          _PKPaletteToolPickerView._edgeLocation, _PKPaletteToolPickerView._isRulerActive,
                          _PKPaletteToolPickerView._lastSelectedTool, _PKPaletteToolPickerView._overlayView,
                          _PKPaletteToolPickerView._paletteViewState, _PKPaletteToolPickerView._presentedAttributePickerPopover,
                          _PKPaletteToolPickerView._scalingFactor, _PKPaletteToolPickerView._scrollView,
                          _PKPaletteToolPickerView._stackView, _PKPaletteToolPickerView._stackViewWidthConstraint,
                          _PKPaletteToolPickerView._tools, _PKPaletteToolPickerView._toolsHeightConstraints,
                          _PKPaletteToolPickerView._toolsWidthCompactConstraints, _PKPaletteToolPickerView._toolsWidthConstraints,
                          _PKPaletteToolPickerView._usingShortestToolSpacing, _PKPaletteToolPreview._colorPickerPopover,
                          _PKPaletteToolPreview._colorUserInterfaceStyle, _PKPaletteToolPreview._delegate,
                          _PKPaletteToolPreview._edgeLocation, _PKPaletteToolPreview._layoutGuide,
                          _PKPaletteToolPreview._layoutGuideCenterXConstraint, _PKPaletteToolPreview._layoutGuideHeightConstraint,
                          _PKPaletteToolPreview._layoutGuideTopConstraint, _PKPaletteToolPreview._layoutGuideWidthConstraint,
                          _PKPaletteToolPreview._scalingFactor, _PKPaletteToolPreview._tool,
                          _PKPaletteToolPreview._toolViewHeightAnchor, _PKPaletteToolPreview._toolViewTopAnchor,
                          _PKPaletteToolPreview._toolViewVisible, _PKPaletteToolView._attributeViewController,
                          _PKPaletteToolView._colorUserInterfaceStyle, _PKPaletteToolView._edgeLocation,
                          _PKPaletteToolView._imageView, _PKPaletteToolView._imageViewBottomAnchorConstraint,
                          _PKPaletteToolView._imageViewHeigthAnchorConstraint, _PKPaletteToolView._imageViewLeftAnchorConstraint,
                          _PKPaletteToolView._imageViewRightAnchorConstraint, _PKPaletteToolView._imageViewTopAnchorConstraint,
                          _PKPaletteToolView._imageViewWidthAnchorConstraint, _PKPaletteToolView._scalingFactor,
                          _PKPaletteToolView._toolIdentifier, _PKPaletteToolView._toolLargeShadowView,
                          _PKPaletteToolView._toolProperties, _PKPaletteTransition.__remainingTransitionStages,
                          _PKPaletteTransition._delegate, _PKPaletteTransition._expandedToCollapsedAnimatableProperty,
                          _PKPaletteTransition._initialVisualState, _PKPaletteTransition._intermediateVisualState,
                          _PKPaletteTransition._pointingDirection, _PKPaletteTransition._rotationAngleAnimatableProperty,
                          _PKPaletteTransition._targetVisualState, _PKPaletteUndoRedoView._contentView,
                          _PKPaletteUndoRedoView._delegate, _PKPaletteUndoRedoView._edgeLocation, _PKPaletteUndoRedoView._redoButton,
                          _PKPaletteUndoRedoView._redoButtonHeightConstraint, _PKPaletteUndoRedoView._redoButtonWidthConstraint,
                          _PKPaletteUndoRedoView._redoEnabled, _PKPaletteUndoRedoView._scalingFactor,
                          _PKPaletteUndoRedoView._stackView, _PKPaletteUndoRedoView._undoButton,
                          _PKPaletteUndoRedoView._undoButtonHeightConstraint, _PKPaletteUndoRedoView._undoButtonWidthConstraint,
                          _PKPaletteUndoRedoView._undoEnabled, _PKPaletteView._annotationDelegate, _PKPaletteView._autoHideCorner,
                          _PKPaletteView._autoHideEnabled, _PKPaletteView._backgroundMaterialView, _PKPaletteView._backgroundView,
                          _PKPaletteView._bottomThinSeparator, _PKPaletteView._clippingView, _PKPaletteView._colorUserInterfaceStyle,
                          _PKPaletteView._containerView, _PKPaletteView._contentView, _PKPaletteView._delegate,
                          _PKPaletteView._internalDelegate, _PKPaletteView._isEditingOpacity, _PKPaletteView._lastEdgeLocation,
                          _PKPaletteView._lastPaletteEdgePositionWhileDragging, _PKPaletteView._opacityEditingView,
                          _PKPaletteView._paletteContainerCenterXConstraint, _PKPaletteView._paletteContainerCenterYConstraint,
                          _PKPaletteView._paletteContainerCompactBottomConstraint,
                          _PKPaletteView._paletteContainerCompactLeftConstraint,
                          _PKPaletteView._paletteContainerCompactRightConstraint,
                          _PKPaletteView._paletteContainerCompactTopConstraint, _PKPaletteView._paletteContainerHeightConstraint,
                          _PKPaletteView._paletteContainerWidthConstraint, _PKPaletteView._paletteHasLayoutSubviews,
                          _PKPaletteView._paletteIsCompactSize, _PKPaletteView._palettePopoverLayoutSceneMargins,
                          _PKPaletteView._palettePosition, _PKPaletteView._pencilInteraction,
                          _PKPaletteView._popoverPresentingController, _PKPaletteView._presentationController,
                          _PKPaletteView._scalingFactor, _PKPaletteView._settingSelectedColor, _PKPaletteView._supportsOpacityEditing,
                          _PKPaletteView._toolPreview, _PKPaletteView._toolPreviewCenterXConstraint,
                          _PKPaletteView._toolPreviewCenterYConstraint, _PKPaletteView._toolPreviewHeightConstraint,
                          _PKPaletteView._toolPreviewMinimized, _PKPaletteView._toolPreviewWidthConstraint,
                          _PKPaletteView._undoManager, _PKPaletteView._undoRedoCompactView,
                          _PKPaletteView._wantsClearBackgroundColorInCompactSize, _PKPaletteView._wantsUndoRedoButtonsInCompactSize,
                          _PKPaletteViewInteraction._paletteHostView, _PKPaletteViewInteraction._paletteHostViewHeightConstraint,
                          _PKPaletteViewInteraction._paletteHostViewLeftConstraint,
                          _PKPaletteViewInteraction._paletteHostViewTopConstraint,
                          _PKPaletteViewInteraction._paletteHostViewWidthConstraint, _PKPaletteViewInteraction._sceneBounds,
                          _PKPaletteViewInteraction._textEffectsWindowFrame, _PKPaletteViewInteraction._view,
                          _PKPaletteViewInteraction._windowScene, _PKRecognitionDataCollectionViewController._collectionView,
                          _PKRecognitionDataCollectionViewController._collectionViewHeightConstraint,
                          _PKRecognitionDataCollectionViewController._descriptionLabel,
                          _PKRecognitionDataCollectionViewController._drawingImages,
                          _PKRecognitionDataCollectionViewController._drawings,
                          _PKRecognitionDataCollectionViewController._metadata,
                          _PKRecognitionDataCollectionViewController._scrollView,
                          _PKRecognitionDrawingPreviewViewController._drawingImage,
                          _PKRecognitionDrawingPreviewViewController._imageView,
                          _PKRecognitionDrawingPreviewViewController._scrollView, _PKRecognitionOverlayView._drawingTransform,
                          _PKRecognitionOverlayView._visualizationManager, _PKRendererTile._cachedContentsScale,
                          _PKRendererTile._currentlyRenderingCount, _PKRendererTile._drawingFrame, _PKRendererTile._identifier,
                          _PKRendererTile._lastUsedTimestamp, _PKRendererTile._level, _PKRendererTile._offset,
                          _PKRendererTile._outOfDate, _PKRendererTile._renderCount, _PKRendererTile._renderedStrokes,
                          _PKRendererTileController._tileFramebuffers, _PKRendererTileController._tileQueue,
                          _PKRendererTileProperties._level, _PKRendererTileProperties._offset,
                          _PKRendererVSyncController._ioMobileFramebuffer, _PKRendererVSyncController._rendererControllers,
                          _PKRendererVSyncController._runloopQueue, _PKRendererVSyncController._vSyncQueue, _PKReplicaEntry._clock,
                          _PKReplicaEntry._drawing, _PKReplicaEntry._inUse, _PKReplicaEntry._replicaUUIDIndex,
                          _PKReplicaEntry._subclock, _PKReplicaManager._dirtyTokenSet, _PKReplicaManager._replicaEntries,
                          _PKReplicaManager._replicaManagerErrors, _PKReplicaManager._replicaUUIDs, _PKReplicaManager._saveStateBlock,
                          _PKReplicaManager._shouldPersist, _PKReplicaManager._testMode, _PKReplicaManager._uuidAccessQueue,
                          _PKRulerController._canRulerSnapToAngle, _PKRulerController._defaultRulerTransform,
                          _PKRulerController._delegate, _PKRulerController._isInteractingWithRuler,
                          _PKRulerController._lastTouchWasMaskedByRuler, _PKRulerController._previousRulerState,
                          _PKRulerController._rulerGestureRecognizer, _PKRulerController._rulerHostingDelegate,
                          _PKRulerController._rulerHostingView, _PKRulerController._rulerIsRotating, _PKRulerController._rulerLayer,
                          _PKRulerController._rulerSnappedToAngle, _PKRulerController._rulerStartTransform,
                          _PKRulerController._rulerState, _PKRulerController._rulerView, _PKRulerController._rulerWasShownViaGesture,
                          _PKRulerController._snapImpactBehavior, _PKRulerController._wantsSharedRuler,
                          _PKRulerGestureRecognizer._initialSnap, _PKRulerGestureRecognizer._startDelay,
                          _PKRulerGestureRecognizer._startSnapThreshold, _PKRulerGestureRecognizer._startTimer,
                          _PKRulerLayer._currentTValueForSnappedDrawing, _PKRulerLayer._imageTransformTimer,
                          _PKRulerLayer._initialDrawingBoundsYOrigin, _PKRulerLayer._isExpandedInline,
                          _PKRulerLayer._isInlineResizing, _PKRulerLayer._isRulerDrawingMovingToEndOfRuler,
                          _PKRulerLayer._maxTValueForSnappedDrawing, _PKRulerLayer._minTValueForSnappedDrawing,
                          _PKRulerLayer._originTValueForSnappedDrawing, _PKRulerLayer._previousRulerTransform,
                          _PKRulerLayer._rulerAlpha, _PKRulerLayer._rulerAngleMarker, _PKRulerLayer._rulerAngleText,
                          _PKRulerLayer._rulerAngleTick, _PKRulerLayer._rulerController, _PKRulerLayer._rulerDistanceHUD,
                          _PKRulerLayer._rulerDistanceText, _PKRulerLayer._rulerLayer,
                          _PKRulerLayer._rulerZoomStartCenterTValueOnScreen, _PKRulerLayer._rulerZoomStartScale,
                          _PKRulerLayer._rulerZoomStartTransform, _PKRulerLayer._zooming, _PKRulerView._rulerHidden,
                          _PKRulerView._rulerLayer, _PKSearchQueryItem._bounds, _PKSelectDrawingGestureRecognizer._lastFailureTime,
                          _PKSelectionController._cachedStrokeImageScale, _PKSelectionController._currentStrokeSelection,
                          _PKSelectionController._dropInteraction, _PKSelectionController._dropPosition,
                          _PKSelectionController._hasCurrentSelection, _PKSelectionController._isCurrentlyAddingSpace,
                          _PKSelectionController._previousDrawingUUIDForSelection, _PKSelectionController._selectionHullQueue,
                          _PKSelectionController._selectionTransform, _PKSelectionController._selectionView,
                          _PKSelectionController._selectionViewCount, _PKSelectionController._spaceInsertionController,
                          _PKSelectionController._tiledView, _PKSelectionView._calculateSelectionHullBlock, _PKSelectionView._dragGR,
                          _PKSelectionView._dragInteraction, _PKSelectionView._editMenuGR, _PKSelectionView._editMenuLocation,
                          _PKSelectionView._initialDragPosition, _PKSelectionView._initialRotation,
                          _PKSelectionView._isClearingSelection, _PKSelectionView._isDragging, _PKSelectionView._lassoLayer,
                          _PKSelectionView._lassoPath, _PKSelectionView._offsetInTouchView, _PKSelectionView._originalStrokeFrame,
                          _PKSelectionView._originalTranslation, _PKSelectionView._previewProvider,
                          _PKSelectionView._previousResponder, _PKSelectionView._rotation, _PKSelectionView._scale,
                          _PKSelectionView._selectionController, _PKSelectionView._selectionDrawingTransform,
                          _PKSelectionView._startRotation, _PKSelectionView._startScale, _PKSelectionView._strokeSelection,
                          _PKSelectionView._strokeSelectionImage, _PKSelectionView._strokeSelectionImageView,
                          _PKSelectionView._subLassoLayers, _PKSelectionView._userTransform, _PKSelectionView._wantsDragPlatter,
                          _PKSelectionView._whiteLassoLayer, _PKSliceStrokesCommand._substrokes,
                          _PKSpaceInsertionController._beginDragLocation, _PKSpaceInsertionController._bottomImageView,
                          _PKSpaceInsertionController._bottomInsertionView, _PKSpaceInsertionController._bottomStrokeSelection,
                          _PKSpaceInsertionController._didMoveStrokes, _PKSpaceInsertionController._dragBottomLollipopGR,
                          _PKSpaceInsertionController._dragTopLollipopGR, _PKSpaceInsertionController._drawing,
                          _PKSpaceInsertionController._initialViewLocation, _PKSpaceInsertionController._isCurrentlyAddingSpace,
                          _PKSpaceInsertionController._lassoStroke, _PKSpaceInsertionController._selectionController,
                          _PKSpaceInsertionController._strokesAbove, _PKSpaceInsertionController._strokesBelow,
                          _PKSpaceInsertionController._tapToDismissView, _PKSpaceInsertionController._topHandleRemovesWhitespace,
                          _PKSpaceInsertionController._topImageView, _PKSpaceInsertionController._topInsertionView,
                          _PKSpaceInsertionController._topStrokeSelection, _PKSpaceInsertionView._handleLocation,
                          _PKSpaceInsertionView._insertionType, _PKSpaceInsertionView._isDragging, _PKSpaceInsertionView._lassoPath,
                          _PKSpaceInsertionView._scale, _PKStroke.__clipPlane, _PKStroke._cachedBounds, _PKStroke._flags, _PKStroke._ink,
                          _PKStroke._sortID, _PKStroke._strokeData, _PKStroke._strokeUUID, _PKStroke._substrokes,
                          _PKStroke._substrokesVersion, _PKStroke._tRange, _PKStroke._transform, _PKStroke._unknownFields,
                          _PKStroke._version, _PKStrokeDelta._deltaStroke, _PKStrokeDelta._deltaStrokeData, _PKStrokeDelta._strokeUUID,
                          _PKStrokeGenerator._azimuthFilter, _PKStrokeGenerator._baseValues, _PKStrokeGenerator._canSnapToRuler,
                          _PKStrokeGenerator._compressionFilter, _PKStrokeGenerator._currentInputType,
                          _PKStrokeGenerator._currentStroke, _PKStrokeGenerator._decompressionFilter, _PKStrokeGenerator._drawPoints,
                          _PKStrokeGenerator._drawingEndedButNotFinished, _PKStrokeGenerator._drawingWaitForFinishSemaphore,
                          _PKStrokeGenerator._endCapFilter, _PKStrokeGenerator._endHookFilter,
                          _PKStrokeGenerator._eraserIndicatorAlpha, _PKStrokeGenerator._estimatedAltitudeAndAzimuthFilter,
                          _PKStrokeGenerator._immutableCount, _PKStrokeGenerator._inputHasChanged, _PKStrokeGenerator._inputProvider,
                          _PKStrokeGenerator._inputQueue, _PKStrokeGenerator._inputScale, _PKStrokeGenerator._inputSmoother,
                          _PKStrokeGenerator._inputToOutputFilter, _PKStrokeGenerator._isSnappedToRuler,
                          _PKStrokeGenerator._isSnappedToRulerTopSide, _PKStrokeGenerator._lastPoint,
                          _PKStrokeGenerator._latestNonPredictedTimestamp, _PKStrokeGenerator._missedUpdates,
                          _PKStrokeGenerator._outputImmutableCount, _PKStrokeGenerator._outputPoints, _PKStrokeGenerator._outputQueue,
                          _PKStrokeGenerator._pixelSmoothingFilter, _PKStrokeGenerator._pointReductionFilter,
                          _PKStrokeGenerator._rulerExtremaFilter, _PKStrokeGenerator._rulerTransform, _PKStrokeGenerator._rulerWidth,
                          _PKStrokeGenerator._startCapFilter, _PKStrokeGenerator._startHookFilter, _PKStrokeGenerator._strokeMaxForce,
                          _PKStrokeGenerator._touchSensitivity, _PKStrokeGenerator._updatedDrawPoints, _PKStrokeGenerator._useRuler,
                          _PKStrokeGenerator._velocityFilter, _PKStrokeProvider._disabled, _PKStrokeProvider._drawing,
                          _PKStrokeProvider._strokeSlices, _PKStrokeProviderSlice._bounds, _PKStrokeProviderSlice._identifier,
                          _PKStrokeProviderSlice._stroke, _PKStrokeProviderSliceIdentifier._strokeUUID,
                          _PKStrokeProviderSliceIdentifier._tEnd, _PKStrokeProviderSliceIdentifier._tStart,
                          _PKStrokeProviderSliceIdentifier._version, _PKStrokeSelection._drawing, _PKStrokeSelection._lassoStroke,
                          _PKStrokeSelection._strokeImage, _PKStrokeSelection._strokes, _PKSwatchColor._color,
                          _PKSwatchColor._identifier, _PKTextAttachmentDrawingResizeView._enabled,
                          _PKTextAttachmentDrawingResizeView._highlighted, _PKTextAttachmentDrawingResizeView._knobView,
                          _PKTextAttachmentDrawingResizeView._separatorHighlightedView,
                          _PKTextAttachmentDrawingResizeView._separatorView, _PKTextAttachmentDrawingResizeView._top,
                          _PKTextAttachmentDrawingView._bottomResizeView,
                          _PKTextAttachmentDrawingView._eatKeyboardGestureRecognizer,
                          _PKTextAttachmentDrawingView._hideMenuGestureRecognizer, _PKTextAttachmentDrawingView._inserted,
                          _PKTextAttachmentDrawingView._linesLayer, _PKTextAttachmentDrawingView._originalContentInset,
                          _PKTextAttachmentDrawingView._originalDrawingBounds, _PKTextAttachmentDrawingView._originalViewBounds,
                          _PKTextAttachmentDrawingView._resizeDragGestureRecognizer,
                          _PKTextAttachmentDrawingView._resizeHighlightGestureRecognizer, _PKTextAttachmentDrawingView._resizeUpper,
                          _PKTextAttachmentDrawingView._selectDrawingGestureRecognizer,
                          _PKTextAttachmentDrawingView._showMenuGestureRecognizer, _PKTextAttachmentDrawingView._textAttachment,
                          _PKTextAttachmentDrawingView._textViewContentOffsetStartLocation,
                          _PKTextAttachmentDrawingView._tileMaskView, _PKTextAttachmentDrawingView._tileScaleView,
                          _PKTextAttachmentDrawingView._topResizeView, _PKTextAttachmentDrawingView._zoomScale,
                          _PKTextAttachmentDrawingView._zoomStartLocationInAttachment,
                          _PKTextAttachmentDrawingView._zoomStartLocationInWindow, _PKTextAttachmentDrawingView._zoomStartScale,
                          _PKTextAttachmentDrawingView._zoomingProgramatically, _PKTiledCanvasView.__didCancelSelection,
                          _PKTiledCanvasView.__drawingBeganLocation, _PKTiledCanvasView.__fixedDrawingScale,
                          _PKTiledCanvasView.__fixedPixelSize, _PKTiledCanvasView.__oldEraseLocation,
                          _PKTiledCanvasView._allowLiveInteraction, _PKTiledCanvasView._canvasViewFlags,
                          _PKTiledCanvasView._currentDrawingBeingCopiedToCanvas, _PKTiledCanvasView._currentGenerationCount,
                          _PKTiledCanvasView._delegate, _PKTiledCanvasView._displayLink, _PKTiledCanvasView._drawing,
                          _PKTiledCanvasView._drawingController, _PKTiledCanvasView._drawingGestureRecognizer,
                          _PKTiledCanvasView._drawingStartTimestamp, _PKTiledCanvasView._editMenuVisible,
                          _PKTiledCanvasView._fadeOutStrokeAnimations, _PKTiledCanvasView._generateOnscreenVisibleStrokesBlock,
                          _PKTiledCanvasView._hasValidOnscreenVisibleStrokes, _PKTiledCanvasView._ink,
                          _PKTiledCanvasView._insertSpaceEnabled, _PKTiledCanvasView._isDrawing, _PKTiledCanvasView._isErasingObjects,
                          _PKTiledCanvasView._isSelecting, _PKTiledCanvasView._liveAnimationStartTime,
                          _PKTiledCanvasView._liveRenderingOverrideColor, _PKTiledCanvasView._liveStrokeMode,
                          _PKTiledCanvasView._maxNumPredictionPoints, _PKTiledCanvasView._metalLayerContentsScaleOverride,
                          _PKTiledCanvasView._metalView, _PKTiledCanvasView._numSkippedDoubleBufferedFrames,
                          _PKTiledCanvasView._onscreenVisibleStrokes, _PKTiledCanvasView._onscreenVisibleStrokesQueue,
                          _PKTiledCanvasView._paperTexture, _PKTiledCanvasView._paperTransform,
                          _PKTiledCanvasView._powerSavingController, _PKTiledCanvasView._predictionDisabled,
                          _PKTiledCanvasView._purgeResourcesBlock, _PKTiledCanvasView._rulerController,
                          _PKTiledCanvasView._selectionController, _PKTiledCanvasView._shouldPause,
                          _PKTiledCanvasView._strokeIDsToErase, _PKTiledCanvasView._strokeTransform,
                          _PKTiledCanvasView._strokeUUIDsAboutToBeRemoved, _PKTiledCanvasView._strokesAnimatingToDestination,
                          _PKTiledCanvasView._strokesToErase,
                          _PKTiledCanvasView._toolPickerToRestoreBackgroundMaterialUpdatingState,
                          _PKTiledCanvasView._usePrivateResourceHandler, _PKTiledCanvasView._viewScissor,
                          _PKTiledCanvasViewDisplayLinkDelegate._view, _PKTiledTextView._standInEndAttachmentView,
                          _PKTiledTextView._tapToRadarButton, _PKTiledView.__maxFileFormatVersion,
                          _PKTiledView._aggd_cachedVisibleStrokeCount, _PKTiledView._aggd_didMergeWithCollaborator,
                          _PKTiledView._attachmentContainerView, _PKTiledView._cachedAdditionalStrokes,
                          _PKTiledView._cachedDrawingUUIDForAdditionalStrokes,
                          _PKTiledView._cachedDrawingVersionForAdditionalStrokes,
                          _PKTiledView._cachedVisibleStrokesWithAdditionalStrokesForDirtyDrawing, _PKTiledView._canvasView,
                          _PKTiledView._clearSelectionGestureRecognizer, _PKTiledView._createdDrawingForTouchThatHitNothing,
                          _PKTiledView._currentDrawingBeingCopiedToCanvas, _PKTiledView._delegate, _PKTiledView._didScrollBlock,
                          _PKTiledView._dirtyDrawing, _PKTiledView._drawingTouchThatHitNothing, _PKTiledView._drawingUndoSelector,
                          _PKTiledView._drawingUndoTarget, _PKTiledView._dropInteraction, _PKTiledView._fingerDrawingEnabled,
                          _PKTiledView._gestureView, _PKTiledView._isLayingOut, _PKTiledView._lastContentOffset,
                          _PKTiledView._lastZoomScale, _PKTiledView._linedPaper, _PKTiledView._liveAttachment,
                          _PKTiledView._liveStrokeContentOffset, _PKTiledView._rulerController, _PKTiledView._rulerEnabled,
                          _PKTiledView._rulerHostingDelegate, _PKTiledView._scrollView, _PKTiledView._selectionController,
                          _PKTiledView._shouldHideCanvasAfterScroll, _PKTiledView._showDebugOutlines, _PKTiledView._tileController,
                          _PKTiledView._tileLevel, _PKTiledView._tileScale, _PKTiledView._tileSize,
                          _PKTiledView._undoManagersRegisteredWith, _PKTitleQuery._delegate, _PKTitleQuery._drawing,
                          _PKTitleQuery._titleQuery, _PKTitleQueryItem._bounds, _PKTitleQueryItem._transcribedTitle, _PKTool._ink,
                          _PKToolPicker.__delegate, _PKToolPicker.__firstRespondersForVisibleUI, _PKToolPicker.__interaction,
                          _PKToolPicker.__observers, _PKToolPicker.__paletteWasCompact, _PKToolPicker.__previousFirstResponder,
                          _PKTransformStrokesCommand._strokeTransform, _PKTransformStrokesCommand._strokes,
                          _PKUndoCommand._actionName, _PKUndoCommand._drawingUUID, _PKVectorMultiTimestamp._timestamps,
                          _PKVectorTimestamp._clock, _PKVectorTimestampElement._clock, _PKVectorTimestampElement._subclock,
                          _PKVersionedDocument._documentArchive, _PKVisualizationManager._chVisualizationManager,
                          _PKVisualizationManager._delegate, _UITextViewDrawingInfo._addBottomPadding,
                          _UITextViewDrawingInfo._delegate, _UITextViewDrawingInfo._insertLongPressGestureRecognizer,
                          _UITextViewDrawingInfo._rulerEnabled, _UITextViewDrawingInfo._textView, _UITextViewDrawingInfo._tiledView,
                          __PKAllowDrawingWhilePresentingPopoverView._delegate,
                          __PKAllowDrawingWhilePresentingPopoverView._isHitTesting, __PKCheckerGridView._colorA,
                          __PKCheckerGridView._colorB, __PKCheckerGridView._gridSize, __PKCheckerGridView._imageView,
                          __PKColorAlphaSlider._alphaGridView, __PKColorAlphaSlider._alphaGridViewMaskLayer,
                          __PKColorAlphaSlider._color, __PKColorAlphaSlider._colorUserInterfaceStyle, __PKColorAlphaSlider._colorView,
                          __PKColorAlphaSlider._colorViewMaskLayer, __PKColorAlphaSlider._delegate, __PKColorAlphaSlider._maxAlpha,
                          __PKColorAlphaSlider._minAlpha, __PKColorAlphaSlider._sliderKnobView,
                          __PKColorPickerCrosshairCornerMaskView._cornerPosition,
                          __PKColorPickerCrosshairCornerMaskView._excludeCorner,
                          __PKColorPickerSimpleCrosshairView._borderCornerRadius, __PKColorPickerSimpleCrosshairView._borderView,
                          __PKColorPickerSimpleCrosshairView._shadowView, __PKColorPickerView._crosshairPanGR,
                          __PKColorPickerView._crosshairView, __PKColorPickerView._delegate, __PKColorPickerView._gridColorPicker,
                          __PKColorPickerView._initialColor, __PKColorPickerView._selectedColor,
                          __PKDebugToolViewController._dismissButton, __PKDebugToolViewController._doNotFileBugsLabel,
                          __PKDebugToolViewController._tiledView, __PKDebugToolViewController._toolCollectionView,
                          __PKDebugToolViewController._tools, __PKEmbossedColorPickerButton._embossImageView,
                          __PKEmbossedColorPickerButton._hueSpectrumView, __PKEmbossedColorPickerButton._selectedColorLayer,
                          __PKEmbossedColorPickerButton._strokeShapeLayer, __PKEmbossedInkColorButton._colorImageView,
                          __PKEmbossedInkColorButton._embossImageView, __PKEmbossedInkToolButton._attributeSet,
                          __PKEmbossedInkToolButton._color, __PKEmbossedInkToolButton._identifier,
                          __PKEmbossedInkToolButton._isUsedOnDarkBackground, __PKEmbossedInkToolButton._nibEmbossImageView,
                          __PKEmbossedInkToolButton._nibImageView, __PKEmbossedInkToolButton._opacityLabel,
                          __PKEmbossedInkToolButton._sizeState, __PKEmbossedInkToolButton._toolBaseImageView,
                          __PKEmbossedInkToolButton._toolDockMaskImageView, __PKFlatColorPickerButton._hueSpectrumView,
                          __PKFlatColorPickerButton._lastRenderedBounds, __PKFlatColorPickerButton._selectedColorLayer,
                          __PKFlatColorPickerButton._strokeShapeLayer, __PKFlatInkColorButton._fillShapeLayer,
                          __PKFlatInkColorButton._strokeShapeLayer, __PKFlatInkToolButton._attributeSet, __PKFlatInkToolButton._color,
                          __PKFlatInkToolButton._identifier, __PKFlatInkToolButton._isUsedOnDarkBackground,
                          __PKFlatInkToolButton._nibImageView, __PKFlatInkToolButton._nibOutlineImageView,
                          __PKFlatInkToolButton._opacityLabel, __PKFlatInkToolButton._sizeState,
                          __PKFlatInkToolButton._toolBaseImageView, __PKHueSpectrumView._imageView, __PKHueSpectrumView._isCompact,
                          __PKHueSpectrumView._isEmbossed, __PKHueSpectrumView._isSelected, __PKHueSpectrumView._maskLayer,
                          __PKInkAttributesOpacityLabel._opacityValue, __PKInkAttributesOpacityLabel._titleLabel,
                          __PKInkAttributesOpacityLabel._valueLabel, __PKInkAttributesPickerView._colorAlphaSlider,
                          __PKInkAttributesPickerView._delegate, __PKInkAttributesPickerView._displayMode,
                          __PKInkAttributesPickerView._ink, __PKInkAttributesPickerView._separatorView,
                          __PKInkAttributesPickerView._thicknessPicker, __PKInkColorButton._color, __PKInkColorButton._isCompact,
                          __PKInkColorButton._isUsedOnDarkBackground, __PKInkThicknessButton._assetImage,
                          __PKInkThicknessButton._inkIdentifier, __PKInkThicknessButton._inkImageView,
                          __PKInkThicknessButton._lastRenderedBounds, __PKInkThicknessButton._weight,
                          __PKInkThicknessPicker._inkIdentifier, __PKInkThicknessPicker._thicknessButtons,
                          __PKInkThicknessPicker._weight, __PKInkToolOpacityLabel._inkOpacity, __PKInkToolOpacityLabel._label,
                          __PKInkToolOpacityLabel._sizeState, __PKSliderKnobView._knobImageView,
                          __PKSpringLoadingGestureRecognizer._gestureTouch, __PKSpringLoadingGestureRecognizer._hasRecognized,
                          __PKSpringLoadingGestureRecognizer._startLocation,
                          __PKSpringLoadingGestureRecognizer._stationaryFingerTimeout, __PKStrokeClipPlane._normal,
                          __PKStrokeClipPlane._origin, __PKStrokeData._immutablePointsCount, __PKStrokeData._inputType,
                          __PKStrokeData._pointsCount, __PKStrokeData._startIndex, __PKStrokeData._strokeDataPoints,
                          __PKStrokeData._strokeDataPointsPrivate, __PKStrokeData._strokeDataUUID, __PKStrokeData._timestamp,
                          __PKStrokeData._unknownFields, __PKToolIndicator._animationState, __PKToolIndicator._attributeSet,
                          __PKToolIndicator._delegate, __PKToolIndicator._ink, __PKToolIndicator._isEmbossed,
                          __PKToolIndicator._isUsedOnDarkBackground, __PKToolIndicator._sizeState, __PKToolIndicator._toolButton ]
...
