---
archs:                 [ armv7, armv7s, arm64, arm64e ]
platform:              ios
install-name:          "/System/Library/PrivateFrameworks/TextToSpeech.framework/Frameworks/TextToSpeechBundleSupport.framework/TextToSpeechBundleSupport"
current-version:       1
compatibility-version: 1
exports:
  - archs:                [ armv7, armv7s, arm64, arm64e ]
    symbols:              [ _TTSApplyRulesets, _TTSChannelLayoutChanged,
                            _TTSNuanceRuleForIPA, _TTSNuanceRuleForLHP,
                            _TTSPlaybackAudioQueueFlags,
                            _TTSPlaybackAudioSessionID,
                            _TTSPlaybackCompletedAndBuffersReturned,
                            _TTSPlaybackContinue, _TTSPlaybackCreate,
                            _TTSPlaybackDequeueAvailableAudioQueueBuffer,
                            _TTSPlaybackEnqueueFullAudioQueueBuffer,
                            _TTSPlaybackFlushAndPause,
                            _TTSPlaybackFlushForCompletion,
                            _TTSPlaybackGetAudioQueue, _TTSPlaybackGetBufferSize,
                            _TTSPlaybackGetNumberOfChannels,
                            _TTSPlaybackGetSampleSize,
                            _TTSPlaybackInitialStreamDescription,
                            _TTSPlaybackIsPaused, _TTSPlaybackIsPlaying,
                            _TTSPlaybackIsUsingSharedSession,
                            _TTSPlaybackIsValid,
                            _TTSPlaybackIsValidForAudioSessionID,
                            _TTSPlaybackPause, _TTSPlaybackPauseOnly,
                            _TTSPlaybackPerform, _TTSPlaybackReset,
                            _TTSPlaybackSetAudioQueueFlags,
                            _TTSPlaybackSetSynthesizeSilently, _TTSPlaybackStop,
                            _TTSPlaybackStreamDescription,
                            _TTSPlaybackUnpauseOnly,
                            _TTSSpeechCopyStringSubsitutingTones,
                            _TTSVocalizerAddProgrammaticRules,
                            _TTSVocalizerAppendPhonemeToString,
                            _TTSVocalizerCopyAvailableVoiceNames,
                            _TTSVocalizerCopyEscapedStringFromAttributedString,
                            _TTSVocalizerCreateInstance,
                            _TTSVocalizerDataClassCopyLanguageCode,
                            _TTSVocalizerDataClassCopyResourceURL,
                            _TTSVocalizerDataClassCreate,
                            _TTSVocalizerDataClassDefaultVoiceIsFallback,
                            _TTSVocalizerDataClassDestroy,
                            _TTSVocalizerDataClassGetBrokerInfo,
                            _TTSVocalizerDataClassGetDefaultVoiceName,
                            _TTSVocalizerDataClassGetPathForDataId,
                            _TTSVocalizerDataClassSupportsVoiceParamters,
                            _TTSVocalizerDefaultVoiceIsFallback,
                            _TTSVocalizerDestroy, _TTSVocalizerDestroyInstance,
                            _TTSVocalizerErrorToTTSError,
                            _TTSVocalizerGetCriticalSectionImpl,
                            _TTSVocalizerGetDataMappingImpl,
                            _TTSVocalizerGetDataStreamImpl,
                            _TTSVocalizerGetHeapImpl, _TTSVocalizerGetLogImpl,
                            _TTSVocalizerInstanceGetFrequency,
                            _TTSVocalizerInstanceGetSampleRate,
                            _TTSVocalizerIsInitialized,
                            _TTSVocalizerLoadProgrammaticRules,
                            _TTSVocalizerLoadResource,
                            _TTSVocalizerLoadedResources,
                            _TTSVocalizerProcessText, _TTSVocalizerSetParameters,
                            _TTSVocalizerStopProcessingText,
                            _TTSVocalizerVoiceInfoForActiveLanguage,
                            _TextToSpeechBundleSupportVersionNumber,
                            _TextToSpeechBundleSupportVersionString,
                            __BuiltInVoiceNameForLanguage,
                            __PostNotificationAfterDelay,
                            __SpeechMarkIsNotifyable, __TTSIsInternalInstall,
                            __TTSLoadIPAToNashvilleMapForLanguage,
                            __TTSSortedAssetsFromAssets, __TTSStoreUserRules,
                            __TTSThreadRegistryCreateRunLoopSource,
                            __TTSThreadRegistryInitialize,
                            __TTSThreadRegistryMarkRunLoopSourceBusy,
                            __TTSThreadRegistryRunLoopSourceWillTerminate,
                            __TTSThreadRegistryShouldTerminate,
                            __TTSThreadRegistryTerminate,
                            __TTSVocalizerClampPitch, __TTSVocalizerClampRate,
                            __TTSVocalizerClampVolume,
                            __TTSVocalizerResourceFileNameForResource,
                            __ZN5boost11regex_errorC1ENS_15regex_constants10error_typeE,
                            __ZN5boost11regex_errorC1ERKNSt3__112basic_stringIcNS1_11char_traitsIcEENS1_9allocatorIcEEEENS_15regex_constants10error_typeEl,
                            __ZN5boost11regex_errorC2ENS_15regex_constants10error_typeE,
                            __ZN5boost11regex_errorC2ERKNSt3__112basic_stringIcNS1_11char_traitsIcEENS1_9allocatorIcEEEENS_15regex_constants10error_typeEl,
                            __ZN5boost11regex_errorD0Ev,
                            __ZN5boost11regex_errorD1Ev,
                            __ZN5boost11regex_errorD2Ev,
                            __ZN5boost16re_detail_10650011block_cacheE,
                            __ZN5boost16re_detail_10650011raw_storage6insertEmm,
                            __ZN5boost16re_detail_10650011raw_storage6resizeEm,
                            __ZN5boost16re_detail_10650013get_mem_blockEv,
                            __ZN5boost16re_detail_10650013put_mem_blockEPv,
                            __ZN5boost16re_detail_10650014def_coll_namesE,
                            __ZN5boost16re_detail_10650014def_multi_collE,
                            __ZN5boost16re_detail_10650014verify_optionsEjNS_15regex_constants12_match_flagsE,
                            __ZN5boost16re_detail_10650015do_global_lowerEc,
                            __ZN5boost16re_detail_10650015do_global_lowerEw,
                            __ZN5boost16re_detail_10650015do_global_upperEc,
                            __ZN5boost16re_detail_10650015do_global_upperEw,
                            __ZN5boost16re_detail_10650018get_default_syntaxEh,
                            __ZN5boost16re_detail_10650019raise_runtime_errorERKSt13runtime_error,
                            __ZN5boost16re_detail_10650023get_default_syntax_typeEc,
                            __ZN5boost16re_detail_10650024get_default_error_stringENS_15regex_constants10error_typeE,
                            __ZN5boost16re_detail_10650027cpp_regex_traits_char_layerIcE4initEv,
                            __ZN5boost16re_detail_10650027is_combining_implementationEt,
                            __ZN5boost16re_detail_10650027lookup_default_collate_nameERKNSt3__112basic_stringIcNS1_11char_traitsIcEENS1_9allocatorIcEEEE,
                            __ZN5boost16re_detail_10650030get_default_escape_syntax_typeEc,
                            __ZN5boost24scoped_static_mutex_lock4lockEv,
                            __ZN5boost24scoped_static_mutex_lock6unlockEv,
                            __ZN5boost24scoped_static_mutex_lockC1ERNS_12static_mutexEb,
                            __ZN5boost24scoped_static_mutex_lockC2ERNS_12static_mutexEb,
                            __ZN5boost24scoped_static_mutex_lockD1Ev,
                            __ZN5boost24scoped_static_mutex_lockD2Ev,
                            __ZNK5boost11regex_error5raiseEv,
                            __ZTIN5boost11regex_errorE,
                            __ZTSN5boost11regex_errorE,
                            __ZTVN5boost11regex_errorE ]
    objc-classes:         [ _ServerSpeechRequest, _TTSBoostRuleMatch,
                            _TTSNashvilleSpeechVoice, _TTSPhonemeSupport,
                            _TTSRange, _TTSRegexHelper, _TTSSpeechServer,
                            _TTSSpeechServerInstance, _TTSTimer, _TTSTimerObject,
                            _TTSUTF8Offset, _TTSVocalizer, _TTSVoiceAssetManager ]
    objc-ivars:           [ _ServerSpeechRequest.attributedText,
                            _ServerSpeechRequest.audioBufferCallback,
                            _ServerSpeechRequest.audioQueueFlags,
                            _ServerSpeechRequest.audioSessionID,
                            _ServerSpeechRequest.channels,
                            _ServerSpeechRequest.clientRequest,
                            _ServerSpeechRequest.clientServer,
                            _ServerSpeechRequest.footprint,
                            _ServerSpeechRequest.gender,
                            _ServerSpeechRequest.languageCode,
                            _ServerSpeechRequest.maintainInput,
                            _ServerSpeechRequest.notifyMarkStart,
                            _ServerSpeechRequest.outputPathURL,
                            _ServerSpeechRequest.pitch,
                            _ServerSpeechRequest.rate,
                            _ServerSpeechRequest.rulesetRangeAdjustments,
                            _ServerSpeechRequest.supportsAccurateWordCallbacks,
                            _ServerSpeechRequest.synthesizeSilently,
                            _ServerSpeechRequest.text,
                            _ServerSpeechRequest.useSharedSession,
                            _ServerSpeechRequest.voiceName,
                            _ServerSpeechRequest.voiceResource,
                            _ServerSpeechRequest.voiceType,
                            _ServerSpeechRequest.volume,
                            _TTSBoostRuleMatch._boostRuleIndex,
                            _TTSBoostRuleMatch._groupings,
                            _TTSBoostRuleMatch._range, _TTSBoostRuleMatch._rule,
                            _TTSNashvilleSpeechVoice._overrideDefault,
                            _TTSNashvilleSpeechVoice._overrideExcludeInAvailableVoiceList,
                            _TTSNashvilleSpeechVoice._overrideFallbackDefault,
                            _TTSNashvilleSpeechVoice._voiceType,
                            _TTSRange._range, _TTSRegexHelper._boostRegexes,
                            _TTSRegexHelper._boostRules,
                            _TTSRegexHelper._duplicateChecker,
                            _TTSRegexHelper._escapeStripper,
                            _TTSRegexHelper._nsRules,
                            _TTSRegexHelper._regexStyle,
                            _TTSRegexHelper._ttsRegexQueue,
                            _TTSSpeechServer._serverInstances,
                            _TTSSpeechServer._speechInitializationInstance,
                            _TTSSpeechServer.serviceQueue,
                            _TTSSpeechServerInstance._didTerminateThread,
                            _TTSSpeechServerInstance._newVoiceInstalled,
                            _TTSSpeechServerInstance._shouldTerminateThread,
                            _TTSSpeechServerInstance._speechActive,
                            _TTSSpeechServerInstance._speechActiveContext,
                            _TTSSpeechServerInstance._speechActivitySignal,
                            _TTSSpeechServerInstance._speechLock,
                            _TTSSpeechServerInstance._speechRequestQueue,
                            _TTSSpeechServerInstance._speechService,
                            _TTSSpeechServerInstance._speechThreadActive,
                            _TTSSpeechServerInstance._speechThreadPriorityIsHigh,
                            _TTSSpeechServerInstance._speechThreadRunLoop,
                            _TTSSpeechServerInstance._synthesizerId,
                            _TTSSpeechServerInstance._vocalizer,
                            _TTSSpeechServerInstance._wordCallbackTimer,
                            _TTSTimer._dispatchQueue, _TTSTimer._paused,
                            _TTSTimer._queue, _TTSTimer._timer,
                            _TTSTimer._timerLock, _TTSTimerObject._block,
                            _TTSTimerObject._endTime, _TTSTimerObject._intId,
                            _TTSTimerObject._remainingTime,
                            _TTSUTF8Offset._actualLength,
                            _TTSUTF8Offset._actualPos,
                            _TTSUTF8Offset._cStringOffset,
                            _TTSUTF8Offset._lengthDifference,
                            _TTSVocalizer._ttsVocalizerCurrentLanguageCode,
                            _TTSVocalizer._ttsVocalizerDataClass,
                            _TTSVocalizer._ttsVocalizerResourceDataPtrs,
                            _TTSVocalizer._ttsVocalizerRulesetData,
                            _TTSVoiceAssetManager._resourceCache ]
    weak-def-symbols:     [ __ZGVZN5boost12object_cacheINS_16re_detail_10650021cpp_regex_traits_baseIcEENS1_31cpp_regex_traits_implementationIcEEE6do_getERKS3_mE6s_data,
                            __ZGVZN5boost16cpp_regex_traitsIcE21get_catalog_name_instEvE6s_name,
                            __ZGVZN5boost16re_detail_10650031cpp_regex_traits_implementationIcE4initEvE11null_string,
                            __ZN5boost11basic_regexIcNS_12regex_traitsIcNS_16cpp_regex_traitsIcEEEEE5imbueENSt3__16localeE,
                            __ZN5boost11basic_regexIcNS_12regex_traitsIcNS_16cpp_regex_traitsIcEEEEE9do_assignEPKcS7_j,
                            __ZN5boost13match_resultsIPKcNSt3__19allocatorINS_9sub_matchIS2_EEEEE12maybe_assignERKS8_,
                            __ZN5boost16cpp_regex_traitsIcE12catalog_nameERKNSt3__112basic_stringIcNS2_11char_traitsIcEENS2_9allocatorIcEEEE,
                            __ZN5boost16cpp_regex_traitsIcE14get_mutex_instEv,
                            __ZN5boost16cpp_regex_traitsIcE16get_catalog_nameEv,
                            __ZN5boost16cpp_regex_traitsIcE21get_catalog_name_instEv,
                            __ZN5boost16re_detail_10650012perl_matcherINSt3__111__wrap_iterIPKcEENS2_9allocatorINS_9sub_matchIS6_EEEENS_12regex_traitsIcNS_16cpp_regex_traitsIcEEEEE10match_failEv,
                            __ZN5boost16re_detail_10650012perl_matcherINSt3__111__wrap_iterIPKcEENS2_9allocatorINS_9sub_matchIS6_EEEENS_12regex_traitsIcNS_16cpp_regex_traitsIcEEEEE10match_jumpEv,
                            __ZN5boost16re_detail_10650012perl_matcherINSt3__111__wrap_iterIPKcEENS2_9allocatorINS_9sub_matchIS6_EEEENS_12regex_traitsIcNS_16cpp_regex_traitsIcEEEEE10match_thenEv,
                            __ZN5boost16re_detail_10650012perl_matcherINSt3__111__wrap_iterIPKcEENS2_9allocatorINS_9sub_matchIS6_EEEENS_12regex_traitsIcNS_16cpp_regex_traitsIcEEEEE10match_wildEv,
                            __ZN5boost16re_detail_10650012perl_matcherINSt3__111__wrap_iterIPKcEENS2_9allocatorINS_9sub_matchIS6_EEEENS_12regex_traitsIcNS_16cpp_regex_traitsIcEEEEE10unwind_altEb,
                            __ZN5boost16re_detail_10650012perl_matcherINSt3__111__wrap_iterIPKcEENS2_9allocatorINS_9sub_matchIS6_EEEENS_12regex_traitsIcNS_16cpp_regex_traitsIcEEEEE10unwind_endEb,
                            __ZN5boost16re_detail_10650012perl_matcherINSt3__111__wrap_iterIPKcEENS2_9allocatorINS_9sub_matchIS6_EEEENS_12regex_traitsIcNS_16cpp_regex_traitsIcEEEEE11match_matchEv,
                            __ZN5boost16re_detail_10650012perl_matcherINSt3__111__wrap_iterIPKcEENS2_9allocatorINS_9sub_matchIS6_EEEENS_12regex_traitsIcNS_16cpp_regex_traitsIcEEEEE11unwind_caseEb,
                            __ZN5boost16re_detail_10650012perl_matcherINSt3__111__wrap_iterIPKcEENS2_9allocatorINS_9sub_matchIS6_EEEENS_12regex_traitsIcNS_16cpp_regex_traitsIcEEEEE11unwind_thenEb,
                            __ZN5boost16re_detail_10650012perl_matcherINSt3__111__wrap_iterIPKcEENS2_9allocatorINS_9sub_matchIS6_EEEENS_12regex_traitsIcNS_16cpp_regex_traitsIcEEEEE12match_acceptEv,
                            __ZN5boost16re_detail_10650012perl_matcherINSt3__111__wrap_iterIPKcEENS2_9allocatorINS_9sub_matchIS6_EEEENS_12regex_traitsIcNS_16cpp_regex_traitsIcEEEEE12match_commitEv,
                            __ZN5boost16re_detail_10650012perl_matcherINSt3__111__wrap_iterIPKcEENS2_9allocatorINS_9sub_matchIS6_EEEENS_12regex_traitsIcNS_16cpp_regex_traitsIcEEEEE12match_prefixEv,
                            __ZN5boost16re_detail_10650012perl_matcherINSt3__111__wrap_iterIPKcEENS2_9allocatorINS_9sub_matchIS6_EEEENS_12regex_traitsIcNS_16cpp_regex_traitsIcEEEEE12unwind_parenEb,
                            __ZN5boost16re_detail_10650012perl_matcherINSt3__111__wrap_iterIPKcEENS2_9allocatorINS_9sub_matchIS6_EEEENS_12regex_traitsIcNS_16cpp_regex_traitsIcEEEEE13match_backrefEv,
                            __ZN5boost16re_detail_10650012perl_matcherINSt3__111__wrap_iterIPKcEENS2_9allocatorINS_9sub_matchIS6_EEEENS_12regex_traitsIcNS_16cpp_regex_traitsIcEEEEE13match_endmarkEv,
                            __ZN5boost16re_detail_10650012perl_matcherINSt3__111__wrap_iterIPKcEENS2_9allocatorINS_9sub_matchIS6_EEEENS_12regex_traitsIcNS_16cpp_regex_traitsIcEEEEE13match_literalEv,
                            __ZN5boost16re_detail_10650012perl_matcherINSt3__111__wrap_iterIPKcEENS2_9allocatorINS_9sub_matchIS6_EEEENS_12regex_traitsIcNS_16cpp_regex_traitsIcEEEEE13unwind_commitEb,
                            __ZN5boost16re_detail_10650012perl_matcherINSt3__111__wrap_iterIPKcEENS2_9allocatorINS_9sub_matchIS6_EEEENS_12regex_traitsIcNS_16cpp_regex_traitsIcEEEEE14match_backstepEv,
                            __ZN5boost16re_detail_10650012perl_matcherINSt3__111__wrap_iterIPKcEENS2_9allocatorINS_9sub_matchIS6_EEEENS_12regex_traitsIcNS_16cpp_regex_traitsIcEEEEE14match_end_lineEv,
                            __ZN5boost16re_detail_10650012perl_matcherINSt3__111__wrap_iterIPKcEENS2_9allocatorINS_9sub_matchIS6_EEEENS_12regex_traitsIcNS_16cpp_regex_traitsIcEEEEE14match_long_setEv,
                            __ZN5boost16re_detail_10650012perl_matcherINSt3__111__wrap_iterIPKcEENS2_9allocatorINS_9sub_matchIS6_EEEENS_12regex_traitsIcNS_16cpp_regex_traitsIcEEEEE14match_word_endEv,
                            __ZN5boost16re_detail_10650012perl_matcherINSt3__111__wrap_iterIPKcEENS2_9allocatorINS_9sub_matchIS6_EEEENS_12regex_traitsIcNS_16cpp_regex_traitsIcEEEEE15match_combiningEv,
                            __ZN5boost16re_detail_10650012perl_matcherINSt3__111__wrap_iterIPKcEENS2_9allocatorINS_9sub_matchIS6_EEEENS_12regex_traitsIcNS_16cpp_regex_traitsIcEEEEE15match_recursionEv,
                            __ZN5boost16re_detail_10650012perl_matcherINSt3__111__wrap_iterIPKcEENS2_9allocatorINS_9sub_matchIS6_EEEENS_12regex_traitsIcNS_16cpp_regex_traitsIcEEEEE15match_startmarkEv,
                            __ZN5boost16re_detail_10650012perl_matcherINSt3__111__wrap_iterIPKcEENS2_9allocatorINS_9sub_matchIS6_EEEENS_12regex_traitsIcNS_16cpp_regex_traitsIcEEEEE16find_restart_anyEv,
                            __ZN5boost16re_detail_10650012perl_matcherINSt3__111__wrap_iterIPKcEENS2_9allocatorINS_9sub_matchIS6_EEEENS_12regex_traitsIcNS_16cpp_regex_traitsIcEEEEE16find_restart_bufEv,
                            __ZN5boost16re_detail_10650012perl_matcherINSt3__111__wrap_iterIPKcEENS2_9allocatorINS_9sub_matchIS6_EEEENS_12regex_traitsIcNS_16cpp_regex_traitsIcEEEEE16find_restart_litEv,
                            __ZN5boost16re_detail_10650012perl_matcherINSt3__111__wrap_iterIPKcEENS2_9allocatorINS_9sub_matchIS6_EEEENS_12regex_traitsIcNS_16cpp_regex_traitsIcEEEEE16match_buffer_endEv,
                            __ZN5boost16re_detail_10650012perl_matcherINSt3__111__wrap_iterIPKcEENS2_9allocatorINS_9sub_matchIS6_EEEENS_12regex_traitsIcNS_16cpp_regex_traitsIcEEEEE16match_set_repeatEv,
                            __ZN5boost16re_detail_10650012perl_matcherINSt3__111__wrap_iterIPKcEENS2_9allocatorINS_9sub_matchIS6_EEEENS_12regex_traitsIcNS_16cpp_regex_traitsIcEEEEE16match_start_lineEv,
                            __ZN5boost16re_detail_10650012perl_matcherINSt3__111__wrap_iterIPKcEENS2_9allocatorINS_9sub_matchIS6_EEEENS_12regex_traitsIcNS_16cpp_regex_traitsIcEEEEE16match_word_startEv,
                            __ZN5boost16re_detail_10650012perl_matcherINSt3__111__wrap_iterIPKcEENS2_9allocatorINS_9sub_matchIS6_EEEENS_12regex_traitsIcNS_16cpp_regex_traitsIcEEEEE16unwind_assertionEb,
                            __ZN5boost16re_detail_10650012perl_matcherINSt3__111__wrap_iterIPKcEENS2_9allocatorINS_9sub_matchIS6_EEEENS_12regex_traitsIcNS_16cpp_regex_traitsIcEEEEE16unwind_recursionEb,
                            __ZN5boost16re_detail_10650012perl_matcherINSt3__111__wrap_iterIPKcEENS2_9allocatorINS_9sub_matchIS6_EEEENS_12regex_traitsIcNS_16cpp_regex_traitsIcEEEEE17find_restart_lineEv,
                            __ZN5boost16re_detail_10650012perl_matcherINSt3__111__wrap_iterIPKcEENS2_9allocatorINS_9sub_matchIS6_EEEENS_12regex_traitsIcNS_16cpp_regex_traitsIcEEEEE17find_restart_wordEv,
                            __ZN5boost16re_detail_10650012perl_matcherINSt3__111__wrap_iterIPKcEENS2_9allocatorINS_9sub_matchIS6_EEEENS_12regex_traitsIcNS_16cpp_regex_traitsIcEEEEE17match_char_repeatEv,
                            __ZN5boost16re_detail_10650012perl_matcherINSt3__111__wrap_iterIPKcEENS2_9allocatorINS_9sub_matchIS6_EEEENS_12regex_traitsIcNS_16cpp_regex_traitsIcEEEEE17match_toggle_caseEv,
                            __ZN5boost16re_detail_10650012perl_matcherINSt3__111__wrap_iterIPKcEENS2_9allocatorINS_9sub_matchIS6_EEEENS_12regex_traitsIcNS_16cpp_regex_traitsIcEEEEE17match_within_wordEv,
                            __ZN5boost16re_detail_10650012perl_matcherINSt3__111__wrap_iterIPKcEENS2_9allocatorINS_9sub_matchIS6_EEEENS_12regex_traitsIcNS_16cpp_regex_traitsIcEEEEE18match_buffer_startEv,
                            __ZN5boost16re_detail_10650012perl_matcherINSt3__111__wrap_iterIPKcEENS2_9allocatorINS_9sub_matchIS6_EEEENS_12regex_traitsIcNS_16cpp_regex_traitsIcEEEEE18unwind_char_repeatEb,
                            __ZN5boost16re_detail_10650012perl_matcherINSt3__111__wrap_iterIPKcEENS2_9allocatorINS_9sub_matchIS6_EEEENS_12regex_traitsIcNS_16cpp_regex_traitsIcEEEEE18unwind_extra_blockEb,
                            __ZN5boost16re_detail_10650012perl_matcherINSt3__111__wrap_iterIPKcEENS2_9allocatorINS_9sub_matchIS6_EEEENS_12regex_traitsIcNS_16cpp_regex_traitsIcEEEEE19match_word_boundaryEv,
                            __ZN5boost16re_detail_10650012perl_matcherINSt3__111__wrap_iterIPKcEENS2_9allocatorINS_9sub_matchIS6_EEEENS_12regex_traitsIcNS_16cpp_regex_traitsIcEEEEE20unwind_recursion_popEb,
                            __ZN5boost16re_detail_10650012perl_matcherINSt3__111__wrap_iterIPKcEENS2_9allocatorINS_9sub_matchIS6_EEEENS_12regex_traitsIcNS_16cpp_regex_traitsIcEEEEE21match_long_set_repeatEv,
                            __ZN5boost16re_detail_10650012perl_matcherINSt3__111__wrap_iterIPKcEENS2_9allocatorINS_9sub_matchIS6_EEEENS_12regex_traitsIcNS_16cpp_regex_traitsIcEEEEE21match_soft_buffer_endEv,
                            __ZN5boost16re_detail_10650012perl_matcherINSt3__111__wrap_iterIPKcEENS2_9allocatorINS_9sub_matchIS6_EEEENS_12regex_traitsIcNS_16cpp_regex_traitsIcEEEEE22match_restart_continueEv,
                            __ZN5boost16re_detail_10650012perl_matcherINSt3__111__wrap_iterIPKcEENS2_9allocatorINS_9sub_matchIS6_EEEENS_12regex_traitsIcNS_16cpp_regex_traitsIcEEEEE22unwind_fast_dot_repeatEb,
                            __ZN5boost16re_detail_10650012perl_matcherINSt3__111__wrap_iterIPKcEENS2_9allocatorINS_9sub_matchIS6_EEEENS_12regex_traitsIcNS_16cpp_regex_traitsIcEEEEE22unwind_long_set_repeatEb,
                            __ZN5boost16re_detail_10650012perl_matcherINSt3__111__wrap_iterIPKcEENS2_9allocatorINS_9sub_matchIS6_EEEENS_12regex_traitsIcNS_16cpp_regex_traitsIcEEEEE22unwind_slow_dot_repeatEb,
                            __ZN5boost16re_detail_10650012perl_matcherINSt3__111__wrap_iterIPKcEENS2_9allocatorINS_9sub_matchIS6_EEEENS_12regex_traitsIcNS_16cpp_regex_traitsIcEEEEE23unwind_repeater_counterEb,
                            __ZN5boost16re_detail_10650012perl_matcherINSt3__111__wrap_iterIPKcEENS2_9allocatorINS_9sub_matchIS6_EEEENS_12regex_traitsIcNS_16cpp_regex_traitsIcEEEEE23unwind_short_set_repeatEb,
                            __ZN5boost16re_detail_10650012perl_matcherINSt3__111__wrap_iterIPKcEENS2_9allocatorINS_9sub_matchIS6_EEEENS_12regex_traitsIcNS_16cpp_regex_traitsIcEEEEE24unwind_non_greedy_repeatEb,
                            __ZN5boost16re_detail_10650012perl_matcherINSt3__111__wrap_iterIPKcEENS2_9allocatorINS_9sub_matchIS6_EEEENS_12regex_traitsIcNS_16cpp_regex_traitsIcEEEEE24unwind_recursion_stopperEb,
                            __ZN5boost16re_detail_10650012perl_matcherINSt3__111__wrap_iterIPKcEENS2_9allocatorINS_9sub_matchIS6_EEEENS_12regex_traitsIcNS_16cpp_regex_traitsIcEEEEE27unwind_greedy_single_repeatEb,
                            __ZN5boost16re_detail_10650012perl_matcherINSt3__111__wrap_iterIPKcEENS2_9allocatorINS_9sub_matchIS6_EEEENS_12regex_traitsIcNS_16cpp_regex_traitsIcEEEEE9match_altEv,
                            __ZN5boost16re_detail_10650012perl_matcherINSt3__111__wrap_iterIPKcEENS2_9allocatorINS_9sub_matchIS6_EEEENS_12regex_traitsIcNS_16cpp_regex_traitsIcEEEEE9match_repEv,
                            __ZN5boost16re_detail_10650012perl_matcherINSt3__111__wrap_iterIPKcEENS2_9allocatorINS_9sub_matchIS6_EEEENS_12regex_traitsIcNS_16cpp_regex_traitsIcEEEEE9match_setEv,
                            __ZN5boost16re_detail_10650012perl_matcherIPKcNSt3__19allocatorINS_9sub_matchIS3_EEEENS_12regex_traitsIcNS_16cpp_regex_traitsIcEEEEE10match_failEv,
                            __ZN5boost16re_detail_10650012perl_matcherIPKcNSt3__19allocatorINS_9sub_matchIS3_EEEENS_12regex_traitsIcNS_16cpp_regex_traitsIcEEEEE10match_jumpEv,
                            __ZN5boost16re_detail_10650012perl_matcherIPKcNSt3__19allocatorINS_9sub_matchIS3_EEEENS_12regex_traitsIcNS_16cpp_regex_traitsIcEEEEE10match_thenEv,
                            __ZN5boost16re_detail_10650012perl_matcherIPKcNSt3__19allocatorINS_9sub_matchIS3_EEEENS_12regex_traitsIcNS_16cpp_regex_traitsIcEEEEE10match_wildEv,
                            __ZN5boost16re_detail_10650012perl_matcherIPKcNSt3__19allocatorINS_9sub_matchIS3_EEEENS_12regex_traitsIcNS_16cpp_regex_traitsIcEEEEE10unwind_altEb,
                            __ZN5boost16re_detail_10650012perl_matcherIPKcNSt3__19allocatorINS_9sub_matchIS3_EEEENS_12regex_traitsIcNS_16cpp_regex_traitsIcEEEEE10unwind_endEb,
                            __ZN5boost16re_detail_10650012perl_matcherIPKcNSt3__19allocatorINS_9sub_matchIS3_EEEENS_12regex_traitsIcNS_16cpp_regex_traitsIcEEEEE11match_matchEv,
                            __ZN5boost16re_detail_10650012perl_matcherIPKcNSt3__19allocatorINS_9sub_matchIS3_EEEENS_12regex_traitsIcNS_16cpp_regex_traitsIcEEEEE11unwind_caseEb,
                            __ZN5boost16re_detail_10650012perl_matcherIPKcNSt3__19allocatorINS_9sub_matchIS3_EEEENS_12regex_traitsIcNS_16cpp_regex_traitsIcEEEEE11unwind_thenEb,
                            __ZN5boost16re_detail_10650012perl_matcherIPKcNSt3__19allocatorINS_9sub_matchIS3_EEEENS_12regex_traitsIcNS_16cpp_regex_traitsIcEEEEE12match_acceptEv,
                            __ZN5boost16re_detail_10650012perl_matcherIPKcNSt3__19allocatorINS_9sub_matchIS3_EEEENS_12regex_traitsIcNS_16cpp_regex_traitsIcEEEEE12match_commitEv,
                            __ZN5boost16re_detail_10650012perl_matcherIPKcNSt3__19allocatorINS_9sub_matchIS3_EEEENS_12regex_traitsIcNS_16cpp_regex_traitsIcEEEEE12match_prefixEv,
                            __ZN5boost16re_detail_10650012perl_matcherIPKcNSt3__19allocatorINS_9sub_matchIS3_EEEENS_12regex_traitsIcNS_16cpp_regex_traitsIcEEEEE12unwind_parenEb,
                            __ZN5boost16re_detail_10650012perl_matcherIPKcNSt3__19allocatorINS_9sub_matchIS3_EEEENS_12regex_traitsIcNS_16cpp_regex_traitsIcEEEEE13match_backrefEv,
                            __ZN5boost16re_detail_10650012perl_matcherIPKcNSt3__19allocatorINS_9sub_matchIS3_EEEENS_12regex_traitsIcNS_16cpp_regex_traitsIcEEEEE13match_endmarkEv,
                            __ZN5boost16re_detail_10650012perl_matcherIPKcNSt3__19allocatorINS_9sub_matchIS3_EEEENS_12regex_traitsIcNS_16cpp_regex_traitsIcEEEEE13match_literalEv,
                            __ZN5boost16re_detail_10650012perl_matcherIPKcNSt3__19allocatorINS_9sub_matchIS3_EEEENS_12regex_traitsIcNS_16cpp_regex_traitsIcEEEEE13unwind_commitEb,
                            __ZN5boost16re_detail_10650012perl_matcherIPKcNSt3__19allocatorINS_9sub_matchIS3_EEEENS_12regex_traitsIcNS_16cpp_regex_traitsIcEEEEE14construct_initERKNS_11basic_regexIcSC_EENS_15regex_constants12_match_flagsE,
                            __ZN5boost16re_detail_10650012perl_matcherIPKcNSt3__19allocatorINS_9sub_matchIS3_EEEENS_12regex_traitsIcNS_16cpp_regex_traitsIcEEEEE14match_backstepEv,
                            __ZN5boost16re_detail_10650012perl_matcherIPKcNSt3__19allocatorINS_9sub_matchIS3_EEEENS_12regex_traitsIcNS_16cpp_regex_traitsIcEEEEE14match_end_lineEv,
                            __ZN5boost16re_detail_10650012perl_matcherIPKcNSt3__19allocatorINS_9sub_matchIS3_EEEENS_12regex_traitsIcNS_16cpp_regex_traitsIcEEEEE14match_long_setEv,
                            __ZN5boost16re_detail_10650012perl_matcherIPKcNSt3__19allocatorINS_9sub_matchIS3_EEEENS_12regex_traitsIcNS_16cpp_regex_traitsIcEEEEE14match_word_endEv,
                            __ZN5boost16re_detail_10650012perl_matcherIPKcNSt3__19allocatorINS_9sub_matchIS3_EEEENS_12regex_traitsIcNS_16cpp_regex_traitsIcEEEEE15match_combiningEv,
                            __ZN5boost16re_detail_10650012perl_matcherIPKcNSt3__19allocatorINS_9sub_matchIS3_EEEENS_12regex_traitsIcNS_16cpp_regex_traitsIcEEEEE15match_recursionEv,
                            __ZN5boost16re_detail_10650012perl_matcherIPKcNSt3__19allocatorINS_9sub_matchIS3_EEEENS_12regex_traitsIcNS_16cpp_regex_traitsIcEEEEE15match_startmarkEv,
                            __ZN5boost16re_detail_10650012perl_matcherIPKcNSt3__19allocatorINS_9sub_matchIS3_EEEENS_12regex_traitsIcNS_16cpp_regex_traitsIcEEEEE16find_restart_anyEv,
                            __ZN5boost16re_detail_10650012perl_matcherIPKcNSt3__19allocatorINS_9sub_matchIS3_EEEENS_12regex_traitsIcNS_16cpp_regex_traitsIcEEEEE16find_restart_bufEv,
                            __ZN5boost16re_detail_10650012perl_matcherIPKcNSt3__19allocatorINS_9sub_matchIS3_EEEENS_12regex_traitsIcNS_16cpp_regex_traitsIcEEEEE16find_restart_litEv,
                            __ZN5boost16re_detail_10650012perl_matcherIPKcNSt3__19allocatorINS_9sub_matchIS3_EEEENS_12regex_traitsIcNS_16cpp_regex_traitsIcEEEEE16match_buffer_endEv,
                            __ZN5boost16re_detail_10650012perl_matcherIPKcNSt3__19allocatorINS_9sub_matchIS3_EEEENS_12regex_traitsIcNS_16cpp_regex_traitsIcEEEEE16match_set_repeatEv,
                            __ZN5boost16re_detail_10650012perl_matcherIPKcNSt3__19allocatorINS_9sub_matchIS3_EEEENS_12regex_traitsIcNS_16cpp_regex_traitsIcEEEEE16match_start_lineEv,
                            __ZN5boost16re_detail_10650012perl_matcherIPKcNSt3__19allocatorINS_9sub_matchIS3_EEEENS_12regex_traitsIcNS_16cpp_regex_traitsIcEEEEE16match_word_startEv,
                            __ZN5boost16re_detail_10650012perl_matcherIPKcNSt3__19allocatorINS_9sub_matchIS3_EEEENS_12regex_traitsIcNS_16cpp_regex_traitsIcEEEEE16unwind_assertionEb,
                            __ZN5boost16re_detail_10650012perl_matcherIPKcNSt3__19allocatorINS_9sub_matchIS3_EEEENS_12regex_traitsIcNS_16cpp_regex_traitsIcEEEEE16unwind_recursionEb,
                            __ZN5boost16re_detail_10650012perl_matcherIPKcNSt3__19allocatorINS_9sub_matchIS3_EEEENS_12regex_traitsIcNS_16cpp_regex_traitsIcEEEEE17find_restart_lineEv,
                            __ZN5boost16re_detail_10650012perl_matcherIPKcNSt3__19allocatorINS_9sub_matchIS3_EEEENS_12regex_traitsIcNS_16cpp_regex_traitsIcEEEEE17find_restart_wordEv,
                            __ZN5boost16re_detail_10650012perl_matcherIPKcNSt3__19allocatorINS_9sub_matchIS3_EEEENS_12regex_traitsIcNS_16cpp_regex_traitsIcEEEEE17match_char_repeatEv,
                            __ZN5boost16re_detail_10650012perl_matcherIPKcNSt3__19allocatorINS_9sub_matchIS3_EEEENS_12regex_traitsIcNS_16cpp_regex_traitsIcEEEEE17match_toggle_caseEv,
                            __ZN5boost16re_detail_10650012perl_matcherIPKcNSt3__19allocatorINS_9sub_matchIS3_EEEENS_12regex_traitsIcNS_16cpp_regex_traitsIcEEEEE17match_within_wordEv,
                            __ZN5boost16re_detail_10650012perl_matcherIPKcNSt3__19allocatorINS_9sub_matchIS3_EEEENS_12regex_traitsIcNS_16cpp_regex_traitsIcEEEEE18match_buffer_startEv,
                            __ZN5boost16re_detail_10650012perl_matcherIPKcNSt3__19allocatorINS_9sub_matchIS3_EEEENS_12regex_traitsIcNS_16cpp_regex_traitsIcEEEEE18unwind_char_repeatEb,
                            __ZN5boost16re_detail_10650012perl_matcherIPKcNSt3__19allocatorINS_9sub_matchIS3_EEEENS_12regex_traitsIcNS_16cpp_regex_traitsIcEEEEE18unwind_extra_blockEb,
                            __ZN5boost16re_detail_10650012perl_matcherIPKcNSt3__19allocatorINS_9sub_matchIS3_EEEENS_12regex_traitsIcNS_16cpp_regex_traitsIcEEEEE19match_word_boundaryEv,
                            __ZN5boost16re_detail_10650012perl_matcherIPKcNSt3__19allocatorINS_9sub_matchIS3_EEEENS_12regex_traitsIcNS_16cpp_regex_traitsIcEEEEE20match_assert_backrefEv,
                            __ZN5boost16re_detail_10650012perl_matcherIPKcNSt3__19allocatorINS_9sub_matchIS3_EEEENS_12regex_traitsIcNS_16cpp_regex_traitsIcEEEEE20unwind_recursion_popEb,
                            __ZN5boost16re_detail_10650012perl_matcherIPKcNSt3__19allocatorINS_9sub_matchIS3_EEEENS_12regex_traitsIcNS_16cpp_regex_traitsIcEEEEE21match_long_set_repeatEv,
                            __ZN5boost16re_detail_10650012perl_matcherIPKcNSt3__19allocatorINS_9sub_matchIS3_EEEENS_12regex_traitsIcNS_16cpp_regex_traitsIcEEEEE21match_soft_buffer_endEv,
                            __ZN5boost16re_detail_10650012perl_matcherIPKcNSt3__19allocatorINS_9sub_matchIS3_EEEENS_12regex_traitsIcNS_16cpp_regex_traitsIcEEEEE22match_restart_continueEv,
                            __ZN5boost16re_detail_10650012perl_matcherIPKcNSt3__19allocatorINS_9sub_matchIS3_EEEENS_12regex_traitsIcNS_16cpp_regex_traitsIcEEEEE22unwind_fast_dot_repeatEb,
                            __ZN5boost16re_detail_10650012perl_matcherIPKcNSt3__19allocatorINS_9sub_matchIS3_EEEENS_12regex_traitsIcNS_16cpp_regex_traitsIcEEEEE22unwind_long_set_repeatEb,
                            __ZN5boost16re_detail_10650012perl_matcherIPKcNSt3__19allocatorINS_9sub_matchIS3_EEEENS_12regex_traitsIcNS_16cpp_regex_traitsIcEEEEE22unwind_slow_dot_repeatEb,
                            __ZN5boost16re_detail_10650012perl_matcherIPKcNSt3__19allocatorINS_9sub_matchIS3_EEEENS_12regex_traitsIcNS_16cpp_regex_traitsIcEEEEE23unwind_repeater_counterEb,
                            __ZN5boost16re_detail_10650012perl_matcherIPKcNSt3__19allocatorINS_9sub_matchIS3_EEEENS_12regex_traitsIcNS_16cpp_regex_traitsIcEEEEE23unwind_short_set_repeatEb,
                            __ZN5boost16re_detail_10650012perl_matcherIPKcNSt3__19allocatorINS_9sub_matchIS3_EEEENS_12regex_traitsIcNS_16cpp_regex_traitsIcEEEEE24unwind_non_greedy_repeatEb,
                            __ZN5boost16re_detail_10650012perl_matcherIPKcNSt3__19allocatorINS_9sub_matchIS3_EEEENS_12regex_traitsIcNS_16cpp_regex_traitsIcEEEEE24unwind_recursion_stopperEb,
                            __ZN5boost16re_detail_10650012perl_matcherIPKcNSt3__19allocatorINS_9sub_matchIS3_EEEENS_12regex_traitsIcNS_16cpp_regex_traitsIcEEEEE25match_dot_repeat_dispatchEv,
                            __ZN5boost16re_detail_10650012perl_matcherIPKcNSt3__19allocatorINS_9sub_matchIS3_EEEENS_12regex_traitsIcNS_16cpp_regex_traitsIcEEEEE27unwind_greedy_single_repeatEb,
                            __ZN5boost16re_detail_10650012perl_matcherIPKcNSt3__19allocatorINS_9sub_matchIS3_EEEENS_12regex_traitsIcNS_16cpp_regex_traitsIcEEEEE4findEv,
                            __ZN5boost16re_detail_10650012perl_matcherIPKcNSt3__19allocatorINS_9sub_matchIS3_EEEENS_12regex_traitsIcNS_16cpp_regex_traitsIcEEEEE5matchEv,
                            __ZN5boost16re_detail_10650012perl_matcherIPKcNSt3__19allocatorINS_9sub_matchIS3_EEEENS_12regex_traitsIcNS_16cpp_regex_traitsIcEEEEE9match_altEv,
                            __ZN5boost16re_detail_10650012perl_matcherIPKcNSt3__19allocatorINS_9sub_matchIS3_EEEENS_12regex_traitsIcNS_16cpp_regex_traitsIcEEEEE9match_repEv,
                            __ZN5boost16re_detail_10650012perl_matcherIPKcNSt3__19allocatorINS_9sub_matchIS3_EEEENS_12regex_traitsIcNS_16cpp_regex_traitsIcEEEEE9match_setEv,
                            __ZN5boost16re_detail_10650018basic_regex_parserIcNS_12regex_traitsIcNS_16cpp_regex_traitsIcEEEEE11parse_basicEv,
                            __ZN5boost16re_detail_10650018basic_regex_parserIcNS_12regex_traitsIcNS_16cpp_regex_traitsIcEEEEE13parse_literalEv,
                            __ZN5boost16re_detail_10650018basic_regex_parserIcNS_12regex_traitsIcNS_16cpp_regex_traitsIcEEEEE14parse_extendedEv,
                            __ZN5boost16re_detail_10650021cpp_regex_traits_baseIcE5imbueERKNSt3__16localeE,
                            __ZN5boost16re_detail_10650031cpp_regex_traits_implementationIcE4initEv,
                            __ZNK5boost16cpp_regex_traitsIcE3toiERPKcS3_i,
                            __ZNK5boost16re_detail_10650031cpp_regex_traits_implementationIcE17transform_primaryEPKcS4_,
                            __ZNK5boost16re_detail_10650031cpp_regex_traits_implementationIcE18lookup_collatenameEPKcS4_,
                            __ZNK5boost16re_detail_10650031cpp_regex_traits_implementationIcE20lookup_classname_impEPKcS4_,
                            __ZNK5boost16re_detail_10650031cpp_regex_traits_implementationIcE9transformEPKcS4_,
                            __ZTIN5boost16exception_detail10clone_baseE,
                            __ZTIN5boost16exception_detail10clone_implINS0_19error_info_injectorINS_11regex_errorEEEEE,
                            __ZTIN5boost16exception_detail10clone_implINS0_19error_info_injectorISt11logic_errorEEEE,
                            __ZTIN5boost16exception_detail10clone_implINS0_19error_info_injectorISt13runtime_errorEEEE,
                            __ZTIN5boost16exception_detail10clone_implINS0_19error_info_injectorISt16invalid_argumentEEEE,
                            __ZTIN5boost16exception_detail19error_info_injectorINS_11regex_errorEEE,
                            __ZTIN5boost16exception_detail19error_info_injectorISt11logic_errorEE,
                            __ZTIN5boost16exception_detail19error_info_injectorISt13runtime_errorEE,
                            __ZTIN5boost16exception_detail19error_info_injectorISt16invalid_argumentEE,
                            __ZTIN5boost16re_detail_10650010parser_bufIcNSt3__111char_traitsIcEEEE,
                            __ZTIN5boost6detail15sp_counted_baseE,
                            __ZTIN5boost6detail17sp_counted_impl_pINS_16re_detail_10650026basic_regex_implementationIcNS_12regex_traitsIcNS_16cpp_regex_traitsIcEEEEEEEE,
                            __ZTIN5boost6detail17sp_counted_impl_pINS_16re_detail_10650031cpp_regex_traits_implementationIcEEEE,
                            __ZTIN5boost6detail17sp_counted_impl_pINS_20regex_traits_wrapperINS_12regex_traitsIcNS_16cpp_regex_traitsIcEEEEEEEE,
                            __ZTIN5boost9exceptionE,
                            __ZTSN5boost16exception_detail10clone_baseE,
                            __ZTSN5boost16exception_detail10clone_implINS0_19error_info_injectorINS_11regex_errorEEEEE,
                            __ZTSN5boost16exception_detail10clone_implINS0_19error_info_injectorISt11logic_errorEEEE,
                            __ZTSN5boost16exception_detail10clone_implINS0_19error_info_injectorISt13runtime_errorEEEE,
                            __ZTSN5boost16exception_detail10clone_implINS0_19error_info_injectorISt16invalid_argumentEEEE,
                            __ZTSN5boost16exception_detail19error_info_injectorINS_11regex_errorEEE,
                            __ZTSN5boost16exception_detail19error_info_injectorISt11logic_errorEE,
                            __ZTSN5boost16exception_detail19error_info_injectorISt13runtime_errorEE,
                            __ZTSN5boost16exception_detail19error_info_injectorISt16invalid_argumentEE,
                            __ZTSN5boost16re_detail_10650010parser_bufIcNSt3__111char_traitsIcEEEE,
                            __ZTSN5boost6detail15sp_counted_baseE,
                            __ZTSN5boost6detail17sp_counted_impl_pINS_16re_detail_10650026basic_regex_implementationIcNS_12regex_traitsIcNS_16cpp_regex_traitsIcEEEEEEEE,
                            __ZTSN5boost6detail17sp_counted_impl_pINS_16re_detail_10650031cpp_regex_traits_implementationIcEEEE,
                            __ZTSN5boost6detail17sp_counted_impl_pINS_20regex_traits_wrapperINS_12regex_traitsIcNS_16cpp_regex_traitsIcEEEEEEEE,
                            __ZTSN5boost9exceptionE,
                            __ZZN5boost12object_cacheINS_16re_detail_10650021cpp_regex_traits_baseIcEENS1_31cpp_regex_traits_implementationIcEEE3getERKS3_mE3mut,
                            __ZZN5boost12object_cacheINS_16re_detail_10650021cpp_regex_traits_baseIcEENS1_31cpp_regex_traits_implementationIcEEE6do_getERKS3_mE6s_data,
                            __ZZN5boost16cpp_regex_traitsIcE14get_mutex_instEvE7s_mutex,
                            __ZZN5boost16cpp_regex_traitsIcE21get_catalog_name_instEvE6s_name,
                            __ZZN5boost16re_detail_10650018basic_regex_parserIcNS_12regex_traitsIcNS_16cpp_regex_traitsIcEEEEE14add_emacs_codeEbE7s_punct,
                            __ZZN5boost16re_detail_10650018basic_regex_parserIcNS_12regex_traitsIcNS_16cpp_regex_traitsIcEEEEE15parse_inner_setERNS0_14basic_char_setIcS5_EEE18incomplete_message,
                            __ZZN5boost16re_detail_10650018basic_regex_parserIcNS_12regex_traitsIcNS_16cpp_regex_traitsIcEEEEE18parse_repeat_rangeEbE18incomplete_message,
                            __ZZN5boost16re_detail_10650018basic_regex_parserIcNS_12regex_traitsIcNS_16cpp_regex_traitsIcEEEEE21parse_extended_escapeEvE18incomplete_message,
                            __ZZN5boost16re_detail_10650018basic_regex_parserIcNS_12regex_traitsIcNS_16cpp_regex_traitsIcEEEEE9parse_setEvE18incomplete_message,
                            __ZZN5boost16re_detail_10650019basic_regex_creatorIcNS_12regex_traitsIcNS_16cpp_regex_traitsIcEEEEEC1EPNS0_10regex_dataIcS5_EEE1a,
                            __ZZN5boost16re_detail_10650019basic_regex_creatorIcNS_12regex_traitsIcNS_16cpp_regex_traitsIcEEEEEC1EPNS0_10regex_dataIcS5_EEE1l,
                            __ZZN5boost16re_detail_10650019basic_regex_creatorIcNS_12regex_traitsIcNS_16cpp_regex_traitsIcEEEEEC1EPNS0_10regex_dataIcS5_EEE1s,
                            __ZZN5boost16re_detail_10650019basic_regex_creatorIcNS_12regex_traitsIcNS_16cpp_regex_traitsIcEEEEEC1EPNS0_10regex_dataIcS5_EEE1u,
                            __ZZN5boost16re_detail_10650019basic_regex_creatorIcNS_12regex_traitsIcNS_16cpp_regex_traitsIcEEEEEC1EPNS0_10regex_dataIcS5_EEE1w,
                            __ZZN5boost16re_detail_10650019get_escape_R_stringIcEEPKT_vE2e2,
                            __ZZN5boost16re_detail_10650020get_default_class_idIcEEiPKT_S4_E10ranges_end,
                            __ZZN5boost16re_detail_10650020get_default_class_idIcEEiPKT_S4_E12ranges_begin,
                            __ZZN5boost16re_detail_10650020get_default_class_idIcEEiPKT_S4_E4data,
                            __ZZN5boost16re_detail_10650020get_default_class_idIcEEiPKT_S4_E6ranges,
                            __ZZN5boost16re_detail_10650031cpp_regex_traits_implementationIcE4initEvE11null_string ]
...
